---
triple:          'arm64-apple-darwin'
binary-path:     picflip_demo
relocations:
  - { offsetInCU: 0x26, offset: 0x26, size: 0x8, addend: 0x0, symName: _main, symObjAddr: 0x0, symBinAddr: 0x10000371C, symSize: 0x2C }
  - { offsetInCU: 0x33, offset: 0x33, size: 0x8, addend: 0x0, symName: _main, symObjAddr: 0x0, symBinAddr: 0x10000371C, symSize: 0x2C }
  - { offsetInCU: 0x3F, offset: 0x92, size: 0x8, addend: 0x0, symName: _grid_size, symObjAddr: 0xBCF0, symBinAddr: 0x100014000, symSize: 0x0 }
  - { offsetInCU: 0x5B, offset: 0xAE, size: 0x8, addend: 0x0, symName: _dt, symObjAddr: 0xBCF4, symBinAddr: 0x100014004, symSize: 0x0 }
  - { offsetInCU: 0x77, offset: 0xCA, size: 0x8, addend: 0x0, symName: _pressure_iter, symObjAddr: 0xBCF8, symBinAddr: 0x100014008, symSize: 0x0 }
  - { offsetInCU: 0x8C, offset: 0xDF, size: 0x8, addend: 0x0, symName: _flip_ratio, symObjAddr: 0xBCFC, symBinAddr: 0x10001400C, symSize: 0x0 }
  - { offsetInCU: 0xA1, offset: 0xF4, size: 0x8, addend: 0x0, symName: _simulation_start, symObjAddr: 0x59920, symBinAddr: 0x100014010, symSize: 0x0 }
  - { offsetInCU: 0xBD, offset: 0x110, size: 0x8, addend: 0x0, symName: _particles, symObjAddr: 0x59928, symBinAddr: 0x100014018, symSize: 0x0 }
  - { offsetInCU: 0x837F, offset: 0x83D2, size: 0x8, addend: 0x0, symName: __ZNSt3__17advanceB8ue170006IPNS_6vectorI4Vec2NS_9allocatorIS2_EEEEllvEEvRT_T0_, symObjAddr: 0x76FC, symBinAddr: 0x10000AE44, symSize: 0x38 }
  - { offsetInCU: 0x8777, offset: 0x87CA, size: 0x8, addend: 0x0, symName: __ZNSt3__17advanceB8ue170006IP4Vec2llvEEvRT_T0_, symObjAddr: 0x855C, symBinAddr: 0x10000BCA4, symSize: 0x38 }
  - { offsetInCU: 0x8802, offset: 0x8855, size: 0x8, addend: 0x0, symName: __ZNSt3__17advanceB8ue170006IPNS_6vectorIfNS_9allocatorIfEEEEllvEEvRT_T0_, symObjAddr: 0x8BF4, symBinAddr: 0x10000C33C, symSize: 0x38 }
  - { offsetInCU: 0x8BC1, offset: 0x8C14, size: 0x8, addend: 0x0, symName: __ZNSt3__17advanceB8ue170006IPfllvEEvRT_T0_, symObjAddr: 0x9A40, symBinAddr: 0x10000D188, symSize: 0x38 }
  - { offsetInCU: 0x9B2F, offset: 0x9B82, size: 0x8, addend: 0x0, symName: __ZNSt3__1neB8ue170006IP8ParticleEEbRKNS_11__wrap_iterIT_EES7_, symObjAddr: 0x980, symBinAddr: 0x1000040C8, symSize: 0x34 }
  - { offsetInCU: 0x9B72, offset: 0x9BC5, size: 0x8, addend: 0x0, symName: __ZNSt3__122__make_exception_guardB8ue170006INS_6vectorI4Vec2NS_9allocatorIS2_EEE16__destroy_vectorEEENS_28__exception_guard_exceptionsIT_EES8_, symObjAddr: 0x2498, symBinAddr: 0x100005BE0, symSize: 0x40 }
  - { offsetInCU: 0x9BA7, offset: 0x9BFA, size: 0x8, addend: 0x0, symName: __ZNSt3__119__allocate_at_leastB8ue170006INS_9allocatorI4Vec2EEEENS_19__allocation_resultINS_16allocator_traitsIT_E7pointerEEERS6_m, symObjAddr: 0x288C, symBinAddr: 0x100005FD4, symSize: 0x40 }
  - { offsetInCU: 0x9BEA, offset: 0x9C3D, size: 0x8, addend: 0x0, symName: __ZNSt3__13minB8ue170006ImEERKT_S3_S3_, symObjAddr: 0x29C8, symBinAddr: 0x100006110, symSize: 0x2C }
  - { offsetInCU: 0x9E17, offset: 0x9E6A, size: 0x8, addend: 0x0, symName: __ZNSt3__13minB8ue170006ImNS_6__lessIvvEEEERKT_S5_S5_T0_, symObjAddr: 0x2A54, symBinAddr: 0x10000619C, symSize: 0x54 }
  - { offsetInCU: 0x9EB6, offset: 0x9F09, size: 0x8, addend: 0x0, symName: __ZNSt3__120__throw_length_errorB8ue170006EPKc, symObjAddr: 0x2B30, symBinAddr: 0x100006278, symSize: 0x64 }
  - { offsetInCU: 0x9EE0, offset: 0x9F33, size: 0x8, addend: 0x0, symName: __ZNSt3__117__libcpp_allocateB8ue170006Emm, symObjAddr: 0x2CA0, symBinAddr: 0x1000063E8, symSize: 0x60 }
  - { offsetInCU: 0x9F3A, offset: 0x9F8D, size: 0x8, addend: 0x0, symName: __ZNSt3__124__is_overaligned_for_newB8ue170006Em, symObjAddr: 0x2D00, symBinAddr: 0x100006448, symSize: 0x20 }
  - { offsetInCU: 0x9F68, offset: 0x9FBB, size: 0x8, addend: 0x0, symName: __ZNSt3__121__libcpp_operator_newB8ue170006IJmSt11align_val_tEEEPvDpT_, symObjAddr: 0x2D20, symBinAddr: 0x100006468, symSize: 0x2C }
  - { offsetInCU: 0x9FB5, offset: 0xA008, size: 0x8, addend: 0x0, symName: __ZNSt3__121__libcpp_operator_newB8ue170006IJmEEEPvDpT_, symObjAddr: 0x2D4C, symBinAddr: 0x100006494, symSize: 0x24 }
  - { offsetInCU: 0x9FEE, offset: 0xA041, size: 0x8, addend: 0x0, symName: __ZNSt3__112__to_addressB8ue170006I4Vec2EEPT_S3_, symObjAddr: 0x2E68, symBinAddr: 0x1000065B0, symSize: 0x14 }
  - { offsetInCU: 0xA023, offset: 0xA076, size: 0x8, addend: 0x0, symName: __ZNSt3__119__libcpp_deallocateB8ue170006EPvmm, symObjAddr: 0x332C, symBinAddr: 0x100006A74, symSize: 0x60 }
  - { offsetInCU: 0xA088, offset: 0xA0DB, size: 0x8, addend: 0x0, symName: __ZNSt3__127__do_deallocate_handle_sizeB8ue170006IJSt11align_val_tEEEvPvmDpT_, symObjAddr: 0x338C, symBinAddr: 0x100006AD4, symSize: 0x30 }
  - { offsetInCU: 0xA0DB, offset: 0xA12E, size: 0x8, addend: 0x0, symName: __ZNSt3__127__do_deallocate_handle_sizeB8ue170006IJEEEvPvmDpT_, symObjAddr: 0x33BC, symBinAddr: 0x100006B04, symSize: 0x28 }
  - { offsetInCU: 0xA119, offset: 0xA16C, size: 0x8, addend: 0x0, symName: __ZNSt3__124__libcpp_operator_deleteB8ue170006IJPvSt11align_val_tEEEvDpT_, symObjAddr: 0x33E4, symBinAddr: 0x100006B2C, symSize: 0x2C }
  - { offsetInCU: 0xA162, offset: 0xA1B5, size: 0x8, addend: 0x0, symName: __ZNSt3__124__libcpp_operator_deleteB8ue170006IJPvEEEvDpT_, symObjAddr: 0x3410, symBinAddr: 0x100006B58, symSize: 0x24 }
  - { offsetInCU: 0xA197, offset: 0xA1EA, size: 0x8, addend: 0x0, symName: __ZNSt3__122__make_exception_guardB8ue170006INS_6vectorINS1_I4Vec2NS_9allocatorIS2_EEEENS3_IS5_EEE16__destroy_vectorEEENS_28__exception_guard_exceptionsIT_EESA_, symObjAddr: 0x3510, symBinAddr: 0x100006C58, symSize: 0x40 }
  - { offsetInCU: 0xA1CC, offset: 0xA21F, size: 0x8, addend: 0x0, symName: __ZNSt3__119__allocate_at_leastB8ue170006INS_9allocatorINS_6vectorI4Vec2NS1_IS3_EEEEEEEENS_19__allocation_resultINS_16allocator_traitsIT_E7pointerEEERS9_m, symObjAddr: 0x3844, symBinAddr: 0x100006F8C, symSize: 0x40 }
  - { offsetInCU: 0xA20F, offset: 0xA262, size: 0x8, addend: 0x0, symName: __ZNSt3__112__to_addressB8ue170006INS_6vectorI4Vec2NS_9allocatorIS2_EEEEEEPT_S7_, symObjAddr: 0x3B8C, symBinAddr: 0x1000072D4, symSize: 0x14 }
  - { offsetInCU: 0xA244, offset: 0xA297, size: 0x8, addend: 0x0, symName: __ZNSt3__130__uninitialized_allocator_copyB8ue170006INS_9allocatorI4Vec2EEPS2_S4_S4_EET2_RT_T0_T1_S5_, symObjAddr: 0x3FCC, symBinAddr: 0x100007714, symSize: 0x80 }
  - { offsetInCU: 0xA2E1, offset: 0xA334, size: 0x8, addend: 0x0, symName: __ZNSt3__114__unwrap_rangeB8ue170006IP4Vec2S2_EENS_4pairIT0_S4_EET_S6_, symObjAddr: 0x404C, symBinAddr: 0x100007794, symSize: 0x60 }
  - { offsetInCU: 0xA32D, offset: 0xA380, size: 0x8, addend: 0x0, symName: __ZNSt3__135__uninitialized_allocator_copy_implB8ue170006INS_9allocatorI4Vec2EES2_S2_S2_LPv0EEEPT2_RT_PT0_SA_S6_, symObjAddr: 0x40AC, symBinAddr: 0x1000077F4, symSize: 0x38 }
  - { offsetInCU: 0xA3AE, offset: 0xA401, size: 0x8, addend: 0x0, symName: __ZNSt3__113__unwrap_iterB8ue170006IP4Vec2NS_18__unwrap_iter_implIS2_Lb1EEELi0EEEDTclsrT0_8__unwrapclsr3stdE7declvalIT_EEEES6_, symObjAddr: 0x40E4, symBinAddr: 0x10000782C, symSize: 0x24 }
  - { offsetInCU: 0xA3F2, offset: 0xA445, size: 0x8, addend: 0x0, symName: __ZNSt3__113__rewrap_iterB8ue170006IP4Vec2S2_NS_18__unwrap_iter_implIS2_Lb1EEEEET_S5_T0_, symObjAddr: 0x4108, symBinAddr: 0x100007850, symSize: 0x3C }
  - { offsetInCU: 0xA447, offset: 0xA49A, size: 0x8, addend: 0x0, symName: __ZNSt3__19make_pairB8ue170006IP4Vec2S2_EENS_4pairINS_18__unwrap_ref_decayIT_E4typeENS4_IT0_E4typeEEEOS5_OS8_, symObjAddr: 0x4144, symBinAddr: 0x10000788C, symSize: 0x38 }
  - { offsetInCU: 0xA599, offset: 0xA5EC, size: 0x8, addend: 0x0, symName: __ZNSt3__14copyB8ue170006IP4Vec2S2_EET0_T_S4_S3_, symObjAddr: 0x41EC, symBinAddr: 0x100007934, symSize: 0x40 }
  - { offsetInCU: 0xA5F3, offset: 0xA646, size: 0x8, addend: 0x0, symName: __ZNSt3__16__copyB8ue170006INS_17_ClassicAlgPolicyEP4Vec2S3_S3_EENS_4pairIT0_T2_EES5_T1_S6_, symObjAddr: 0x422C, symBinAddr: 0x100007974, symSize: 0x44 }
  - { offsetInCU: 0xA65F, offset: 0xA6B2, size: 0x8, addend: 0x0, symName: __ZNSt3__123__dispatch_copy_or_moveB8ue170006INS_17_ClassicAlgPolicyENS_11__copy_loopIS1_EENS_14__copy_trivialEP4Vec2S6_S6_EENS_4pairIT2_T4_EES8_T3_S9_, symObjAddr: 0x4270, symBinAddr: 0x1000079B8, symSize: 0x44 }
  - { offsetInCU: 0xA6DD, offset: 0xA730, size: 0x8, addend: 0x0, symName: __ZNSt3__121__unwrap_and_dispatchB8ue170006INS_10__overloadINS_11__copy_loopINS_17_ClassicAlgPolicyEEENS_14__copy_trivialEEEP4Vec2S8_S8_Li0EEENS_4pairIT0_T2_EESA_T1_SB_, symObjAddr: 0x42B4, symBinAddr: 0x1000079FC, symSize: 0xB4 }
  - { offsetInCU: 0xA7ED, offset: 0xA840, size: 0x8, addend: 0x0, symName: __ZNSt3__114__rewrap_rangeB8ue170006IP4Vec2S2_EET_S3_T0_, symObjAddr: 0x43B0, symBinAddr: 0x100007AF8, symSize: 0x2C }
  - { offsetInCU: 0xA839, offset: 0xA88C, size: 0x8, addend: 0x0, symName: __ZNSt3__119__copy_trivial_implB8ue170006I4Vec2S1_EENS_4pairIPT_PT0_EES4_S4_S6_, symObjAddr: 0x43DC, symBinAddr: 0x100007B24, symSize: 0x80 }
  - { offsetInCU: 0xA8A1, offset: 0xA8F4, size: 0x8, addend: 0x0, symName: __ZNSt3__119__constexpr_memmoveB8ue170006I4Vec2S1_Li0EEEPT_S3_PT0_NS_15__element_countE, symObjAddr: 0x445C, symBinAddr: 0x100007BA4, symSize: 0x64 }
  - { offsetInCU: 0xA90F, offset: 0xA962, size: 0x8, addend: 0x0, symName: __ZNSt3__19make_pairB8ue170006IRP4Vec2S2_EENS_4pairINS_18__unwrap_ref_decayIT_E4typeENS5_IT0_E4typeEEEOS6_OS9_, symObjAddr: 0x44C0, symBinAddr: 0x100007C08, symSize: 0x38 }
  - { offsetInCU: 0xA9B1, offset: 0xAA04, size: 0x8, addend: 0x0, symName: __ZNSt3__122__make_exception_guardB8ue170006INS_6vectorIfNS_9allocatorIfEEE16__destroy_vectorEEENS_28__exception_guard_exceptionsIT_EES7_, symObjAddr: 0x4D90, symBinAddr: 0x1000084D8, symSize: 0x40 }
  - { offsetInCU: 0xA9E6, offset: 0xAA39, size: 0x8, addend: 0x0, symName: __ZNSt3__119__allocate_at_leastB8ue170006INS_9allocatorIfEEEENS_19__allocation_resultINS_16allocator_traitsIT_E7pointerEEERS5_m, symObjAddr: 0x5184, symBinAddr: 0x1000088CC, symSize: 0x40 }
  - { offsetInCU: 0xAA29, offset: 0xAA7C, size: 0x8, addend: 0x0, symName: __ZNSt3__112__to_addressB8ue170006IfEEPT_S2_, symObjAddr: 0x54A8, symBinAddr: 0x100008BF0, symSize: 0x14 }
  - { offsetInCU: 0xAA5E, offset: 0xAAB1, size: 0x8, addend: 0x0, symName: __ZNSt3__122__make_exception_guardB8ue170006INS_6vectorINS1_IfNS_9allocatorIfEEEENS2_IS4_EEE16__destroy_vectorEEENS_28__exception_guard_exceptionsIT_EES9_, symObjAddr: 0x5A48, symBinAddr: 0x100009190, symSize: 0x40 }
  - { offsetInCU: 0xAA93, offset: 0xAAE6, size: 0x8, addend: 0x0, symName: __ZNSt3__119__allocate_at_leastB8ue170006INS_9allocatorINS_6vectorIfNS1_IfEEEEEEEENS_19__allocation_resultINS_16allocator_traitsIT_E7pointerEEERS8_m, symObjAddr: 0x5D7C, symBinAddr: 0x1000094C4, symSize: 0x40 }
  - { offsetInCU: 0xAAD6, offset: 0xAB29, size: 0x8, addend: 0x0, symName: __ZNSt3__112__to_addressB8ue170006INS_6vectorIfNS_9allocatorIfEEEEEEPT_S6_, symObjAddr: 0x60C4, symBinAddr: 0x10000980C, symSize: 0x14 }
  - { offsetInCU: 0xAB0B, offset: 0xAB5E, size: 0x8, addend: 0x0, symName: __ZNSt3__130__uninitialized_allocator_copyB8ue170006INS_9allocatorIfEEPfS3_S3_EET2_RT_T0_T1_S4_, symObjAddr: 0x6504, symBinAddr: 0x100009C4C, symSize: 0x80 }
  - { offsetInCU: 0xABA8, offset: 0xABFB, size: 0x8, addend: 0x0, symName: __ZNSt3__114__unwrap_rangeB8ue170006IPfS1_EENS_4pairIT0_S3_EET_S5_, symObjAddr: 0x6584, symBinAddr: 0x100009CCC, symSize: 0x60 }
  - { offsetInCU: 0xABF4, offset: 0xAC47, size: 0x8, addend: 0x0, symName: __ZNSt3__135__uninitialized_allocator_copy_implB8ue170006INS_9allocatorIfEEfffLPv0EEEPT2_RT_PT0_S9_S5_, symObjAddr: 0x65E4, symBinAddr: 0x100009D2C, symSize: 0x38 }
  - { offsetInCU: 0xAC75, offset: 0xACC8, size: 0x8, addend: 0x0, symName: __ZNSt3__113__unwrap_iterB8ue170006IPfNS_18__unwrap_iter_implIS1_Lb1EEELi0EEEDTclsrT0_8__unwrapclsr3stdE7declvalIT_EEEES5_, symObjAddr: 0x661C, symBinAddr: 0x100009D64, symSize: 0x24 }
  - { offsetInCU: 0xACB9, offset: 0xAD0C, size: 0x8, addend: 0x0, symName: __ZNSt3__113__rewrap_iterB8ue170006IPfS1_NS_18__unwrap_iter_implIS1_Lb1EEEEET_S4_T0_, symObjAddr: 0x6640, symBinAddr: 0x100009D88, symSize: 0x3C }
  - { offsetInCU: 0xAD0E, offset: 0xAD61, size: 0x8, addend: 0x0, symName: __ZNSt3__19make_pairB8ue170006IPfS1_EENS_4pairINS_18__unwrap_ref_decayIT_E4typeENS3_IT0_E4typeEEEOS4_OS7_, symObjAddr: 0x667C, symBinAddr: 0x100009DC4, symSize: 0x38 }
  - { offsetInCU: 0xAE60, offset: 0xAEB3, size: 0x8, addend: 0x0, symName: __ZNSt3__14copyB8ue170006IPfS1_EET0_T_S3_S2_, symObjAddr: 0x6724, symBinAddr: 0x100009E6C, symSize: 0x40 }
  - { offsetInCU: 0xAEBA, offset: 0xAF0D, size: 0x8, addend: 0x0, symName: __ZNSt3__16__copyB8ue170006INS_17_ClassicAlgPolicyEPfS2_S2_EENS_4pairIT0_T2_EES4_T1_S5_, symObjAddr: 0x6764, symBinAddr: 0x100009EAC, symSize: 0x44 }
  - { offsetInCU: 0xAF26, offset: 0xAF79, size: 0x8, addend: 0x0, symName: __ZNSt3__123__dispatch_copy_or_moveB8ue170006INS_17_ClassicAlgPolicyENS_11__copy_loopIS1_EENS_14__copy_trivialEPfS5_S5_EENS_4pairIT2_T4_EES7_T3_S8_, symObjAddr: 0x67A8, symBinAddr: 0x100009EF0, symSize: 0x44 }
  - { offsetInCU: 0xAFA4, offset: 0xAFF7, size: 0x8, addend: 0x0, symName: __ZNSt3__121__unwrap_and_dispatchB8ue170006INS_10__overloadINS_11__copy_loopINS_17_ClassicAlgPolicyEEENS_14__copy_trivialEEEPfS7_S7_Li0EEENS_4pairIT0_T2_EES9_T1_SA_, symObjAddr: 0x67EC, symBinAddr: 0x100009F34, symSize: 0xB4 }
  - { offsetInCU: 0xB032, offset: 0xB085, size: 0x8, addend: 0x0, symName: __ZNSt3__114__rewrap_rangeB8ue170006IPfS1_EET_S2_T0_, symObjAddr: 0x68E8, symBinAddr: 0x10000A030, symSize: 0x2C }
  - { offsetInCU: 0xB07E, offset: 0xB0D1, size: 0x8, addend: 0x0, symName: __ZNSt3__119__copy_trivial_implB8ue170006IffEENS_4pairIPT_PT0_EES3_S3_S5_, symObjAddr: 0x6914, symBinAddr: 0x10000A05C, symSize: 0x80 }
  - { offsetInCU: 0xB0E6, offset: 0xB139, size: 0x8, addend: 0x0, symName: __ZNSt3__119__constexpr_memmoveB8ue170006IffLi0EEEPT_S2_PT0_NS_15__element_countE, symObjAddr: 0x6994, symBinAddr: 0x10000A0DC, symSize: 0x64 }
  - { offsetInCU: 0xB154, offset: 0xB1A7, size: 0x8, addend: 0x0, symName: __ZNSt3__19make_pairB8ue170006IRPfS1_EENS_4pairINS_18__unwrap_ref_decayIT_E4typeENS4_IT0_E4typeEEEOS5_OS8_, symObjAddr: 0x69F8, symBinAddr: 0x10000A140, symSize: 0x38 }
  - { offsetInCU: 0xB1F6, offset: 0xB249, size: 0x8, addend: 0x0, symName: __ZNSt3__1eqB8ue170006IP8ParticleEEbRKNS_11__wrap_iterIT_EES7_, symObjAddr: 0x71EC, symBinAddr: 0x10000A934, symSize: 0x48 }
  - { offsetInCU: 0xB239, offset: 0xB28C, size: 0x8, addend: 0x0, symName: __ZNSt3__18distanceB8ue170006IPNS_6vectorI4Vec2NS_9allocatorIS2_EEEEEENS_15iterator_traitsIT_E15difference_typeES8_S8_, symObjAddr: 0x748C, symBinAddr: 0x10000ABD4, symSize: 0x2C }
  - { offsetInCU: 0xB27C, offset: 0xB2CF, size: 0x8, addend: 0x0, symName: __ZNSt3__14nextB8ue170006IPNS_6vectorI4Vec2NS_9allocatorIS2_EEEEEENS_9enable_ifIXsr29__has_input_iterator_categoryIT_EE5valueES8_E4typeES8_NS_15iterator_traitsIS8_E15difference_typeE, symObjAddr: 0x74B8, symBinAddr: 0x10000AC00, symSize: 0x34 }
  - { offsetInCU: 0xB2BF, offset: 0xB312, size: 0x8, addend: 0x0, symName: __ZNSt3__14copyB8ue170006IPNS_6vectorI4Vec2NS_9allocatorIS2_EEEES6_EET0_T_S8_S7_, symObjAddr: 0x74EC, symBinAddr: 0x10000AC34, symSize: 0x40 }
  - { offsetInCU: 0xB319, offset: 0xB36C, size: 0x8, addend: 0x0, symName: __ZNSt3__16__copyB8ue170006INS_17_ClassicAlgPolicyEPNS_6vectorI4Vec2NS_9allocatorIS3_EEEES7_S7_EENS_4pairIT0_T2_EES9_T1_SA_, symObjAddr: 0x75B8, symBinAddr: 0x10000AD00, symSize: 0x44 }
  - { offsetInCU: 0xB385, offset: 0xB3D8, size: 0x8, addend: 0x0, symName: __ZNSt3__121__convert_to_integralB8ue170006El, symObjAddr: 0x7734, symBinAddr: 0x10000AE7C, symSize: 0x14 }
  - { offsetInCU: 0xB3B1, offset: 0xB404, size: 0x8, addend: 0x0, symName: __ZNSt3__19__advanceB8ue170006IPNS_6vectorI4Vec2NS_9allocatorIS2_EEEEEEvRT_NS_15iterator_traitsIS7_E15difference_typeENS_26random_access_iterator_tagE, symObjAddr: 0x7748, symBinAddr: 0x10000AE90, symSize: 0x30 }
  - { offsetInCU: 0xB3FA, offset: 0xB44D, size: 0x8, addend: 0x0, symName: __ZNSt3__130__uninitialized_allocator_copyB8ue170006INS_9allocatorINS_6vectorI4Vec2NS1_IS3_EEEEEEPS5_S7_S7_EET2_RT_T0_T1_S8_, symObjAddr: 0x7778, symBinAddr: 0x10000AEC0, symSize: 0x80 }
  - { offsetInCU: 0xB497, offset: 0xB4EA, size: 0x8, addend: 0x0, symName: __ZNSt3__114__unwrap_rangeB8ue170006IPNS_6vectorI4Vec2NS_9allocatorIS2_EEEES6_EENS_4pairIT0_S8_EET_SA_, symObjAddr: 0x77F8, symBinAddr: 0x10000AF40, symSize: 0x60 }
  - { offsetInCU: 0xB4E3, offset: 0xB536, size: 0x8, addend: 0x0, symName: __ZNSt3__135__uninitialized_allocator_copy_implB8ue170006INS_9allocatorINS_6vectorI4Vec2NS1_IS3_EEEEEEPS5_S7_S7_EET2_RT_T0_T1_S8_, symObjAddr: 0x7858, symBinAddr: 0x10000AFA0, symSize: 0xF4 }
  - { offsetInCU: 0xB581, offset: 0xB5D4, size: 0x8, addend: 0x0, symName: __ZNSt3__113__unwrap_iterB8ue170006IPNS_6vectorI4Vec2NS_9allocatorIS2_EEEENS_18__unwrap_iter_implIS6_Lb1EEELi0EEEDTclsrT0_8__unwrapclsr3stdE7declvalIT_EEEESA_, symObjAddr: 0x794C, symBinAddr: 0x10000B094, symSize: 0x24 }
  - { offsetInCU: 0xB5C5, offset: 0xB618, size: 0x8, addend: 0x0, symName: __ZNSt3__113__rewrap_iterB8ue170006IPNS_6vectorI4Vec2NS_9allocatorIS2_EEEES6_NS_18__unwrap_iter_implIS6_Lb1EEEEET_S9_T0_, symObjAddr: 0x7970, symBinAddr: 0x10000B0B8, symSize: 0x3C }
  - { offsetInCU: 0xB61A, offset: 0xB66D, size: 0x8, addend: 0x0, symName: __ZNSt3__19make_pairB8ue170006IPNS_6vectorI4Vec2NS_9allocatorIS2_EEEES6_EENS_4pairINS_18__unwrap_ref_decayIT_E4typeENS8_IT0_E4typeEEEOS9_OSC_, symObjAddr: 0x79AC, symBinAddr: 0x10000B0F4, symSize: 0x38 }
  - { offsetInCU: 0xB73D, offset: 0xB790, size: 0x8, addend: 0x0, symName: __ZNSt3__122__make_exception_guardB8ue170006INS_29_AllocatorDestroyRangeReverseINS_9allocatorINS_6vectorI4Vec2NS2_IS4_EEEEEEPS6_EEEENS_28__exception_guard_exceptionsIT_EESB_, symObjAddr: 0x7A54, symBinAddr: 0x10000B19C, symSize: 0x4C }
  - { offsetInCU: 0xB773, offset: 0xB7C6, size: 0x8, addend: 0x0, symName: __ZNSt3__119__allocator_destroyB8ue170006INS_9allocatorINS_6vectorI4Vec2NS1_IS3_EEEEEENS_16reverse_iteratorIPS5_EES9_EEvRT_T0_T1_, symObjAddr: 0x7CE4, symBinAddr: 0x10000B42C, symSize: 0x70 }
  - { offsetInCU: 0xB7D6, offset: 0xB829, size: 0x8, addend: 0x0, symName: __ZNSt3__1neB8ue170006IPNS_6vectorI4Vec2NS_9allocatorIS2_EEEES6_EEbRKNS_16reverse_iteratorIT_EERKNS7_IT0_EE, symObjAddr: 0x7D88, symBinAddr: 0x10000B4D0, symSize: 0x48 }
  - { offsetInCU: 0xB822, offset: 0xB875, size: 0x8, addend: 0x0, symName: __ZNSt3__112__to_addressB8ue170006INS_16reverse_iteratorIPNS_6vectorI4Vec2NS_9allocatorIS3_EEEEEEvEEu7__decayIDTclsr19__to_address_helperIT_EE6__callclsr3stdE7declvalIRKS9_EEEEESB_, symObjAddr: 0x7DD0, symBinAddr: 0x10000B518, symSize: 0x24 }
  - { offsetInCU: 0xB8D4, offset: 0xB927, size: 0x8, addend: 0x0, symName: __ZNSt3__123__dispatch_copy_or_moveB8ue170006INS_17_ClassicAlgPolicyENS_11__copy_loopIS1_EENS_14__copy_trivialEPNS_6vectorI4Vec2NS_9allocatorIS6_EEEESA_SA_EENS_4pairIT2_T4_EESC_T3_SD_, symObjAddr: 0x7F54, symBinAddr: 0x10000B69C, symSize: 0x44 }
  - { offsetInCU: 0xB952, offset: 0xB9A5, size: 0x8, addend: 0x0, symName: __ZNSt3__121__unwrap_and_dispatchB8ue170006INS_10__overloadINS_11__copy_loopINS_17_ClassicAlgPolicyEEENS_14__copy_trivialEEEPNS_6vectorI4Vec2NS_9allocatorIS8_EEEESC_SC_Li0EEENS_4pairIT0_T2_EESE_T1_SF_, symObjAddr: 0x7F98, symBinAddr: 0x10000B6E0, symSize: 0xB4 }
  - { offsetInCU: 0xBA7A, offset: 0xBACD, size: 0x8, addend: 0x0, symName: __ZNSt3__114__rewrap_rangeB8ue170006IPNS_6vectorI4Vec2NS_9allocatorIS2_EEEES6_EET_S7_T0_, symObjAddr: 0x80D4, symBinAddr: 0x10000B81C, symSize: 0x2C }
  - { offsetInCU: 0xBAC6, offset: 0xBB19, size: 0x8, addend: 0x0, symName: __ZNSt3__18distanceB8ue170006IP4Vec2EENS_15iterator_traitsIT_E15difference_typeES4_S4_, symObjAddr: 0x8368, symBinAddr: 0x10000BAB0, symSize: 0x2C }
  - { offsetInCU: 0xBB09, offset: 0xBB5C, size: 0x8, addend: 0x0, symName: __ZNSt3__14nextB8ue170006IP4Vec2EENS_9enable_ifIXsr29__has_input_iterator_categoryIT_EE5valueES4_E4typeES4_NS_15iterator_traitsIS4_E15difference_typeE, symObjAddr: 0x8394, symBinAddr: 0x10000BADC, symSize: 0x34 }
  - { offsetInCU: 0xBB4C, offset: 0xBB9F, size: 0x8, addend: 0x0, symName: __ZNSt3__19__advanceB8ue170006IP4Vec2EEvRT_NS_15iterator_traitsIS3_E15difference_typeENS_26random_access_iterator_tagE, symObjAddr: 0x8594, symBinAddr: 0x10000BCDC, symSize: 0x28 }
  - { offsetInCU: 0xBB95, offset: 0xBBE8, size: 0x8, addend: 0x0, symName: __ZNSt3__13maxB8ue170006ImEERKT_S3_S3_, symObjAddr: 0x86B4, symBinAddr: 0x10000BDFC, symSize: 0x2C }
  - { offsetInCU: 0xBBD8, offset: 0xBC2B, size: 0x8, addend: 0x0, symName: __ZNSt3__13maxB8ue170006ImNS_6__lessIvvEEEERKT_S5_S5_T0_, symObjAddr: 0x86E0, symBinAddr: 0x10000BE28, symSize: 0x54 }
  - { offsetInCU: 0xBC32, offset: 0xBC85, size: 0x8, addend: 0x0, symName: __ZNSt3__110__distanceB8ue170006IP4Vec2EENS_15iterator_traitsIT_E15difference_typeES4_S4_NS_26random_access_iterator_tagE, symObjAddr: 0x8734, symBinAddr: 0x10000BE7C, symSize: 0x28 }
  - { offsetInCU: 0xBC7F, offset: 0xBCD2, size: 0x8, addend: 0x0, symName: __ZNSt3__110__distanceB8ue170006IPNS_6vectorI4Vec2NS_9allocatorIS2_EEEEEENS_15iterator_traitsIT_E15difference_typeES8_S8_NS_26random_access_iterator_tagE, symObjAddr: 0x875C, symBinAddr: 0x10000BEA4, symSize: 0x28 }
  - { offsetInCU: 0xBCCC, offset: 0xBD1F, size: 0x8, addend: 0x0, symName: __ZNSt3__18distanceB8ue170006IPNS_6vectorIfNS_9allocatorIfEEEEEENS_15iterator_traitsIT_E15difference_typeES7_S7_, symObjAddr: 0x8984, symBinAddr: 0x10000C0CC, symSize: 0x2C }
  - { offsetInCU: 0xBD0F, offset: 0xBD62, size: 0x8, addend: 0x0, symName: __ZNSt3__14nextB8ue170006IPNS_6vectorIfNS_9allocatorIfEEEEEENS_9enable_ifIXsr29__has_input_iterator_categoryIT_EE5valueES7_E4typeES7_NS_15iterator_traitsIS7_E15difference_typeE, symObjAddr: 0x89B0, symBinAddr: 0x10000C0F8, symSize: 0x34 }
  - { offsetInCU: 0xBD52, offset: 0xBDA5, size: 0x8, addend: 0x0, symName: __ZNSt3__14copyB8ue170006IPNS_6vectorIfNS_9allocatorIfEEEES5_EET0_T_S7_S6_, symObjAddr: 0x89E4, symBinAddr: 0x10000C12C, symSize: 0x40 }
  - { offsetInCU: 0xBDAC, offset: 0xBDFF, size: 0x8, addend: 0x0, symName: __ZNSt3__16__copyB8ue170006INS_17_ClassicAlgPolicyEPNS_6vectorIfNS_9allocatorIfEEEES6_S6_EENS_4pairIT0_T2_EES8_T1_S9_, symObjAddr: 0x8AB0, symBinAddr: 0x10000C1F8, symSize: 0x44 }
  - { offsetInCU: 0xBE18, offset: 0xBE6B, size: 0x8, addend: 0x0, symName: __ZNSt3__19__advanceB8ue170006IPNS_6vectorIfNS_9allocatorIfEEEEEEvRT_NS_15iterator_traitsIS6_E15difference_typeENS_26random_access_iterator_tagE, symObjAddr: 0x8C2C, symBinAddr: 0x10000C374, symSize: 0x30 }
  - { offsetInCU: 0xBE61, offset: 0xBEB4, size: 0x8, addend: 0x0, symName: __ZNSt3__130__uninitialized_allocator_copyB8ue170006INS_9allocatorINS_6vectorIfNS1_IfEEEEEEPS4_S6_S6_EET2_RT_T0_T1_S7_, symObjAddr: 0x8C5C, symBinAddr: 0x10000C3A4, symSize: 0x80 }
  - { offsetInCU: 0xBEFE, offset: 0xBF51, size: 0x8, addend: 0x0, symName: __ZNSt3__114__unwrap_rangeB8ue170006IPNS_6vectorIfNS_9allocatorIfEEEES5_EENS_4pairIT0_S7_EET_S9_, symObjAddr: 0x8CDC, symBinAddr: 0x10000C424, symSize: 0x60 }
  - { offsetInCU: 0xBF4A, offset: 0xBF9D, size: 0x8, addend: 0x0, symName: __ZNSt3__135__uninitialized_allocator_copy_implB8ue170006INS_9allocatorINS_6vectorIfNS1_IfEEEEEEPS4_S6_S6_EET2_RT_T0_T1_S7_, symObjAddr: 0x8D3C, symBinAddr: 0x10000C484, symSize: 0xF4 }
  - { offsetInCU: 0xBFE8, offset: 0xC03B, size: 0x8, addend: 0x0, symName: __ZNSt3__113__unwrap_iterB8ue170006IPNS_6vectorIfNS_9allocatorIfEEEENS_18__unwrap_iter_implIS5_Lb1EEELi0EEEDTclsrT0_8__unwrapclsr3stdE7declvalIT_EEEES9_, symObjAddr: 0x8E30, symBinAddr: 0x10000C578, symSize: 0x24 }
  - { offsetInCU: 0xC02C, offset: 0xC07F, size: 0x8, addend: 0x0, symName: __ZNSt3__113__rewrap_iterB8ue170006IPNS_6vectorIfNS_9allocatorIfEEEES5_NS_18__unwrap_iter_implIS5_Lb1EEEEET_S8_T0_, symObjAddr: 0x8E54, symBinAddr: 0x10000C59C, symSize: 0x3C }
  - { offsetInCU: 0xC081, offset: 0xC0D4, size: 0x8, addend: 0x0, symName: __ZNSt3__19make_pairB8ue170006IPNS_6vectorIfNS_9allocatorIfEEEES5_EENS_4pairINS_18__unwrap_ref_decayIT_E4typeENS7_IT0_E4typeEEEOS8_OSB_, symObjAddr: 0x8E90, symBinAddr: 0x10000C5D8, symSize: 0x38 }
  - { offsetInCU: 0xC1A4, offset: 0xC1F7, size: 0x8, addend: 0x0, symName: __ZNSt3__122__make_exception_guardB8ue170006INS_29_AllocatorDestroyRangeReverseINS_9allocatorINS_6vectorIfNS2_IfEEEEEEPS5_EEEENS_28__exception_guard_exceptionsIT_EESA_, symObjAddr: 0x8F38, symBinAddr: 0x10000C680, symSize: 0x4C }
  - { offsetInCU: 0xC1DA, offset: 0xC22D, size: 0x8, addend: 0x0, symName: __ZNSt3__119__allocator_destroyB8ue170006INS_9allocatorINS_6vectorIfNS1_IfEEEEEENS_16reverse_iteratorIPS4_EES8_EEvRT_T0_T1_, symObjAddr: 0x91C8, symBinAddr: 0x10000C910, symSize: 0x70 }
  - { offsetInCU: 0xC23D, offset: 0xC290, size: 0x8, addend: 0x0, symName: __ZNSt3__1neB8ue170006IPNS_6vectorIfNS_9allocatorIfEEEES5_EEbRKNS_16reverse_iteratorIT_EERKNS6_IT0_EE, symObjAddr: 0x926C, symBinAddr: 0x10000C9B4, symSize: 0x48 }
  - { offsetInCU: 0xC289, offset: 0xC2DC, size: 0x8, addend: 0x0, symName: __ZNSt3__112__to_addressB8ue170006INS_16reverse_iteratorIPNS_6vectorIfNS_9allocatorIfEEEEEEvEEu7__decayIDTclsr19__to_address_helperIT_EE6__callclsr3stdE7declvalIRKS8_EEEEESA_, symObjAddr: 0x92B4, symBinAddr: 0x10000C9FC, symSize: 0x24 }
  - { offsetInCU: 0xC33B, offset: 0xC38E, size: 0x8, addend: 0x0, symName: __ZNSt3__123__dispatch_copy_or_moveB8ue170006INS_17_ClassicAlgPolicyENS_11__copy_loopIS1_EENS_14__copy_trivialEPNS_6vectorIfNS_9allocatorIfEEEES9_S9_EENS_4pairIT2_T4_EESB_T3_SC_, symObjAddr: 0x9438, symBinAddr: 0x10000CB80, symSize: 0x44 }
  - { offsetInCU: 0xC3B9, offset: 0xC40C, size: 0x8, addend: 0x0, symName: __ZNSt3__121__unwrap_and_dispatchB8ue170006INS_10__overloadINS_11__copy_loopINS_17_ClassicAlgPolicyEEENS_14__copy_trivialEEEPNS_6vectorIfNS_9allocatorIfEEEESB_SB_Li0EEENS_4pairIT0_T2_EESD_T1_SE_, symObjAddr: 0x947C, symBinAddr: 0x10000CBC4, symSize: 0xB4 }
  - { offsetInCU: 0xC447, offset: 0xC49A, size: 0x8, addend: 0x0, symName: __ZNSt3__114__rewrap_rangeB8ue170006IPNS_6vectorIfNS_9allocatorIfEEEES5_EET_S6_T0_, symObjAddr: 0x95B8, symBinAddr: 0x10000CD00, symSize: 0x2C }
  - { offsetInCU: 0xC493, offset: 0xC4E6, size: 0x8, addend: 0x0, symName: __ZNSt3__18distanceB8ue170006IPfEENS_15iterator_traitsIT_E15difference_typeES3_S3_, symObjAddr: 0x984C, symBinAddr: 0x10000CF94, symSize: 0x2C }
  - { offsetInCU: 0xC4D6, offset: 0xC529, size: 0x8, addend: 0x0, symName: __ZNSt3__14nextB8ue170006IPfEENS_9enable_ifIXsr29__has_input_iterator_categoryIT_EE5valueES3_E4typeES3_NS_15iterator_traitsIS3_E15difference_typeE, symObjAddr: 0x9878, symBinAddr: 0x10000CFC0, symSize: 0x34 }
  - { offsetInCU: 0xC519, offset: 0xC56C, size: 0x8, addend: 0x0, symName: __ZNSt3__19__advanceB8ue170006IPfEEvRT_NS_15iterator_traitsIS2_E15difference_typeENS_26random_access_iterator_tagE, symObjAddr: 0x9A78, symBinAddr: 0x10000D1C0, symSize: 0x28 }
  - { offsetInCU: 0xC562, offset: 0xC5B5, size: 0x8, addend: 0x0, symName: __ZNSt3__110__distanceB8ue170006IPfEENS_15iterator_traitsIT_E15difference_typeES3_S3_NS_26random_access_iterator_tagE, symObjAddr: 0x9B98, symBinAddr: 0x10000D2E0, symSize: 0x28 }
  - { offsetInCU: 0xC5AF, offset: 0xC602, size: 0x8, addend: 0x0, symName: __ZNSt3__110__distanceB8ue170006IPNS_6vectorIfNS_9allocatorIfEEEEEENS_15iterator_traitsIT_E15difference_typeES7_S7_NS_26random_access_iterator_tagE, symObjAddr: 0x9BC0, symBinAddr: 0x10000D308, symSize: 0x28 }
  - { offsetInCU: 0xC5FC, offset: 0xC64F, size: 0x8, addend: 0x0, symName: __ZNSt3__112__to_addressB8ue170006I8ParticleEEPT_S3_, symObjAddr: 0xA094, symBinAddr: 0x10000D7DC, symSize: 0x14 }
  - { offsetInCU: 0xC631, offset: 0xC684, size: 0x8, addend: 0x0, symName: __ZNSt3__119__allocate_at_leastB8ue170006INS_9allocatorI8ParticleEEEENS_19__allocation_resultINS_16allocator_traitsIT_E7pointerEEERS6_m, symObjAddr: 0xAA00, symBinAddr: 0x10000E148, symSize: 0x40 }
  - { offsetInCU: 0xC674, offset: 0xC6C7, size: 0x8, addend: 0x0, symName: __ZNSt3__142__uninitialized_allocator_move_if_noexceptB8ue170006INS_9allocatorI8ParticleEENS_16reverse_iteratorIPS2_EES6_S2_vEET1_RT_T0_SA_S7_, symObjAddr: 0xABB4, symBinAddr: 0x10000E2FC, symSize: 0x78 }
  - { offsetInCU: 0xC6F1, offset: 0xC744, size: 0x8, addend: 0x0, symName: __ZNSt3__14swapB8ue170006IP8ParticleEENS_9enable_ifIXaasr21is_move_constructibleIT_EE5valuesr18is_move_assignableIS4_EE5valueEvE4typeERS4_S7_, symObjAddr: 0xAC78, symBinAddr: 0x10000E3C0, symSize: 0x3C }
  - { offsetInCU: 0xC742, offset: 0xC795, size: 0x8, addend: 0x0, symName: __ZNSt3__14moveB8ue170006INS_16reverse_iteratorIP8ParticleEES4_EET0_T_S6_S5_, symObjAddr: 0xAD60, symBinAddr: 0x10000E4A8, symSize: 0x78 }
  - { offsetInCU: 0xC79C, offset: 0xC7EF, size: 0x8, addend: 0x0, symName: __ZNSt3__16__moveB8ue170006INS_17_ClassicAlgPolicyENS_16reverse_iteratorIP8ParticleEES5_S5_EENS_4pairIT0_T2_EES7_T1_S8_, symObjAddr: 0xADD8, symBinAddr: 0x10000E520, symSize: 0x64 }
  - { offsetInCU: 0xC808, offset: 0xC85B, size: 0x8, addend: 0x0, symName: __ZNSt3__123__dispatch_copy_or_moveB8ue170006INS_17_ClassicAlgPolicyENS_11__move_loopIS1_EENS_14__move_trivialENS_16reverse_iteratorIP8ParticleEES8_S8_EENS_4pairIT2_T4_EESA_T3_SB_, symObjAddr: 0xAE3C, symBinAddr: 0x10000E584, symSize: 0x64 }
  - { offsetInCU: 0xC886, offset: 0xC8D9, size: 0x8, addend: 0x0, symName: __ZNSt3__121__unwrap_and_dispatchB8ue170006INS_10__overloadINS_11__move_loopINS_17_ClassicAlgPolicyEEENS_14__move_trivialEEENS_16reverse_iteratorIP8ParticleEESA_SA_Li0EEENS_4pairIT0_T2_EESC_T1_SD_, symObjAddr: 0xAEA0, symBinAddr: 0x10000E5E8, symSize: 0x12C }
  - { offsetInCU: 0xC916, offset: 0xC969, size: 0x8, addend: 0x0, symName: __ZNSt3__114__unwrap_rangeB8ue170006INS_16reverse_iteratorIP8ParticleEES4_EENS_4pairIT0_S6_EET_S8_, symObjAddr: 0xAFCC, symBinAddr: 0x10000E714, symSize: 0x84 }
  - { offsetInCU: 0xCA88, offset: 0xCADB, size: 0x8, addend: 0x0, symName: __ZNSt3__113__unwrap_iterB8ue170006INS_16reverse_iteratorIP8ParticleEENS_18__unwrap_iter_implIS4_Lb0EEELi0EEEDTclsrT0_8__unwrapclsr3stdE7declvalIT_EEEES8_, symObjAddr: 0xB0F0, symBinAddr: 0x10000E838, symSize: 0x44 }
  - { offsetInCU: 0xCACC, offset: 0xCB1F, size: 0x8, addend: 0x0, symName: __ZNSt3__19make_pairB8ue170006INS_16reverse_iteratorIP8ParticleEES4_EENS_4pairINS_18__unwrap_ref_decayIT_E4typeENS6_IT0_E4typeEEEOS7_OSA_, symObjAddr: 0xB134, symBinAddr: 0x10000E87C, symSize: 0x38 }
  - { offsetInCU: 0xCB1B, offset: 0xCB6E, size: 0x8, addend: 0x0, symName: __ZNSt3__114__rewrap_rangeB8ue170006INS_16reverse_iteratorIP8ParticleEES4_EET_S5_T0_, symObjAddr: 0xB16C, symBinAddr: 0x10000E8B4, symSize: 0x5C }
  - { offsetInCU: 0xCB67, offset: 0xCBBA, size: 0x8, addend: 0x0, symName: __ZNSt3__113__rewrap_iterB8ue170006INS_16reverse_iteratorIP8ParticleEES4_NS_18__unwrap_iter_implIS4_Lb0EEEEET_S7_T0_, symObjAddr: 0xB1C8, symBinAddr: 0x10000E910, symSize: 0x74 }
  - { offsetInCU: 0xCBBC, offset: 0xCC0F, size: 0x8, addend: 0x0, symName: __ZNSt3__1neB8ue170006IP8ParticleS2_EEbRKNS_16reverse_iteratorIT_EERKNS3_IT0_EE, symObjAddr: 0xB23C, symBinAddr: 0x10000E984, symSize: 0x48 }
  - { offsetInCU: 0xD307, offset: 0xD35A, size: 0x8, addend: 0x0, symName: __ZSt28__throw_bad_array_new_lengthB8ue170006v, symObjAddr: 0x2C6C, symBinAddr: 0x1000063B4, symSize: 0x34 }
  - { offsetInCU: 0xD5D9, offset: 0xD62C, size: 0x8, addend: 0x0, symName: _grid, symObjAddr: 0x59940, symBinAddr: 0x100014030, symSize: 0x0 }
  - { offsetInCU: 0xDD27, offset: 0xDD7A, size: 0x8, addend: 0x0, symName: __ZNSt3__16vectorI8ParticleNS_9allocatorIS1_EEE26__swap_out_circular_bufferERNS_14__split_bufferIS1_RS3_EE, symObjAddr: 0xA6A0, symBinAddr: 0x10000DDE8, symSize: 0x110 }
  - { offsetInCU: 0x1001A, offset: 0x1006D, size: 0x8, addend: 0x0, symName: __ZNSt3__16vectorI8ParticleNS_9allocatorIS1_EEEC1B8ue170006Ev, symObjAddr: 0x0, symBinAddr: 0x100003748, symSize: 0x2C }
  - { offsetInCU: 0x10042, offset: 0x10095, size: 0x8, addend: 0x0, symName: __ZNSt3__16vectorI8ParticleNS_9allocatorIS1_EEED1B8ue170006Ev, symObjAddr: 0x2C, symBinAddr: 0x100003774, symSize: 0x2C }
  - { offsetInCU: 0x1006A, offset: 0x100BD, size: 0x8, addend: 0x0, symName: __ZN4GridC1Ei, symObjAddr: 0x58, symBinAddr: 0x1000037A0, symSize: 0x34 }
  - { offsetInCU: 0x100A1, offset: 0x100F4, size: 0x8, addend: 0x0, symName: __ZN4GridD1Ev, symObjAddr: 0x8C, symBinAddr: 0x1000037D4, symSize: 0x2C }
  - { offsetInCU: 0x100CB, offset: 0x1011E, size: 0x8, addend: 0x0, symName: __Z7isFluidii, symObjAddr: 0xB8, symBinAddr: 0x100003800, symSize: 0xE8 }
  - { offsetInCU: 0x10106, offset: 0x10159, size: 0x8, addend: 0x0, symName: __ZNSt3__16vectorINS0_IfNS_9allocatorIfEEEENS1_IS3_EEEixB8ue170006Em, symObjAddr: 0x1A0, symBinAddr: 0x1000038E8, symSize: 0x2C }
  - { offsetInCU: 0x1013C, offset: 0x1018F, size: 0x8, addend: 0x0, symName: __ZNSt3__16vectorIfNS_9allocatorIfEEEixB8ue170006Em, symObjAddr: 0x1CC, symBinAddr: 0x100003914, symSize: 0x24 }
  - { offsetInCU: 0x10171, offset: 0x101C4, size: 0x8, addend: 0x0, symName: __Z14bspline_weightf, symObjAddr: 0x1F0, symBinAddr: 0x100003938, symSize: 0xAC }
  - { offsetInCU: 0x101B9, offset: 0x1020C, size: 0x8, addend: 0x0, symName: __Z4fabsB8ue170006f, symObjAddr: 0x29C, symBinAddr: 0x1000039E4, symSize: 0x18 }
  - { offsetInCU: 0x101E7, offset: 0x1023A, size: 0x8, addend: 0x0, symName: __Z20initialize_particlesv, symObjAddr: 0x2B4, symBinAddr: 0x1000039FC, symSize: 0x114 }
  - { offsetInCU: 0x10280, offset: 0x102D3, size: 0x8, addend: 0x0, symName: __ZNSt3__16vectorI8ParticleNS_9allocatorIS1_EEE5clearB8ue170006Ev, symObjAddr: 0x3C8, symBinAddr: 0x100003B10, symSize: 0x44 }
  - { offsetInCU: 0x102B3, offset: 0x10306, size: 0x8, addend: 0x0, symName: __ZN4Vec2C1Eff, symObjAddr: 0x40C, symBinAddr: 0x100003B54, symSize: 0x3C }
  - { offsetInCU: 0x102F7, offset: 0x1034A, size: 0x8, addend: 0x0, symName: __ZNSt3__16vectorI8ParticleNS_9allocatorIS1_EEE9push_backB8ue170006EOS1_, symObjAddr: 0x448, symBinAddr: 0x100003B90, symSize: 0x6C }
  - { offsetInCU: 0x1032C, offset: 0x1037F, size: 0x8, addend: 0x0, symName: __Z16particle_to_gridv, symObjAddr: 0x4B4, symBinAddr: 0x100003BFC, symSize: 0x368 }
  - { offsetInCU: 0x10496, offset: 0x104E9, size: 0x8, addend: 0x0, symName: __ZN4Grid5clearEv, symObjAddr: 0x81C, symBinAddr: 0x100003F64, symSize: 0x104 }
  - { offsetInCU: 0x104F2, offset: 0x10545, size: 0x8, addend: 0x0, symName: __ZNSt3__16vectorI8ParticleNS_9allocatorIS1_EEE5beginB8ue170006Ev, symObjAddr: 0x920, symBinAddr: 0x100004068, symSize: 0x30 }
  - { offsetInCU: 0x10518, offset: 0x1056B, size: 0x8, addend: 0x0, symName: __ZNSt3__16vectorI8ParticleNS_9allocatorIS1_EEE3endB8ue170006Ev, symObjAddr: 0x950, symBinAddr: 0x100004098, symSize: 0x30 }
  - { offsetInCU: 0x1053F, offset: 0x10592, size: 0x8, addend: 0x0, symName: __ZNKSt3__111__wrap_iterIP8ParticleEdeB8ue170006Ev, symObjAddr: 0x9B4, symBinAddr: 0x1000040FC, symSize: 0x18 }
  - { offsetInCU: 0x10564, offset: 0x105B7, size: 0x8, addend: 0x0, symName: __ZNK4Vec2mlEf, symObjAddr: 0x9CC, symBinAddr: 0x100004114, symSize: 0x4C }
  - { offsetInCU: 0x10597, offset: 0x105EA, size: 0x8, addend: 0x0, symName: __ZNSt3__16vectorINS0_I4Vec2NS_9allocatorIS1_EEEENS2_IS4_EEEixB8ue170006Em, symObjAddr: 0xA18, symBinAddr: 0x100004160, symSize: 0x2C }
  - { offsetInCU: 0x105CD, offset: 0x10620, size: 0x8, addend: 0x0, symName: __ZNSt3__16vectorI4Vec2NS_9allocatorIS1_EEEixB8ue170006Em, symObjAddr: 0xA44, symBinAddr: 0x10000418C, symSize: 0x24 }
  - { offsetInCU: 0x10603, offset: 0x10656, size: 0x8, addend: 0x0, symName: __ZN4Vec2pLERKS_, symObjAddr: 0xA68, symBinAddr: 0x1000041B0, symSize: 0x40 }
  - { offsetInCU: 0x10636, offset: 0x10689, size: 0x8, addend: 0x0, symName: __ZNSt3__111__wrap_iterIP8ParticleEppB8ue170006Ev, symObjAddr: 0xAA8, symBinAddr: 0x1000041F0, symSize: 0x20 }
  - { offsetInCU: 0x1065A, offset: 0x106AD, size: 0x8, addend: 0x0, symName: __Z17apply_grid_forcesv, symObjAddr: 0xAC8, symBinAddr: 0x100004210, symSize: 0xFC }
  - { offsetInCU: 0x106AC, offset: 0x106FF, size: 0x8, addend: 0x0, symName: __Z18compute_divergenceii, symObjAddr: 0xBC4, symBinAddr: 0x10000430C, symSize: 0x1E4 }
  - { offsetInCU: 0x106F4, offset: 0x10747, size: 0x8, addend: 0x0, symName: __Z16project_pressurev, symObjAddr: 0xDA8, symBinAddr: 0x1000044F0, symSize: 0x5D8 }
  - { offsetInCU: 0x10800, offset: 0x10853, size: 0x8, addend: 0x0, symName: __ZNSt3__16vectorINS0_IfNS_9allocatorIfEEEENS1_IS3_EEEC1ERKS5_, symObjAddr: 0x1380, symBinAddr: 0x100004AC8, symSize: 0x34 }
  - { offsetInCU: 0x10839, offset: 0x1088C, size: 0x8, addend: 0x0, symName: __ZNSt3__16vectorINS0_IfNS_9allocatorIfEEEENS1_IS3_EEEaSB8ue170006ERKS5_, symObjAddr: 0x13B4, symBinAddr: 0x100004AFC, symSize: 0x68 }
  - { offsetInCU: 0x1086E, offset: 0x108C1, size: 0x8, addend: 0x0, symName: __ZNSt3__16vectorINS0_IfNS_9allocatorIfEEEENS1_IS3_EEED1B8ue170006Ev, symObjAddr: 0x141C, symBinAddr: 0x100004B64, symSize: 0x2C }
  - { offsetInCU: 0x10896, offset: 0x108E9, size: 0x8, addend: 0x0, symName: __Z16grid_to_particlev, symObjAddr: 0x1448, symBinAddr: 0x100004B90, symSize: 0x304 }
  - { offsetInCU: 0x109FC, offset: 0x10A4F, size: 0x8, addend: 0x0, symName: __ZNK4Vec2miERKS_, symObjAddr: 0x174C, symBinAddr: 0x100004E94, symSize: 0x54 }
  - { offsetInCU: 0x10A2F, offset: 0x10A82, size: 0x8, addend: 0x0, symName: __ZNK4Vec2plERKS_, symObjAddr: 0x17A0, symBinAddr: 0x100004EE8, symSize: 0x54 }
  - { offsetInCU: 0x10A61, offset: 0x10AB4, size: 0x8, addend: 0x0, symName: __Z16advect_particlesv, symObjAddr: 0x17F4, symBinAddr: 0x100004F3C, symSize: 0x1B0 }
  - { offsetInCU: 0x10ACF, offset: 0x10B22, size: 0x8, addend: 0x0, symName: __Z4stepv, symObjAddr: 0x19A4, symBinAddr: 0x1000050EC, symSize: 0x34 }
  - { offsetInCU: 0x10AE9, offset: 0x10B3C, size: 0x8, addend: 0x0, symName: __ZNSt3__16vectorINS0_I4Vec2NS_9allocatorIS1_EEEENS2_IS4_EEEaSB8ue170006ERKS6_, symObjAddr: 0x19D8, symBinAddr: 0x100005120, symSize: 0x68 }
  - { offsetInCU: 0x10B1E, offset: 0x10B71, size: 0x8, addend: 0x0, symName: __Z7displayv, symObjAddr: 0x1A40, symBinAddr: 0x100005188, symSize: 0x108 }
  - { offsetInCU: 0x10BB8, offset: 0x10C0B, size: 0x8, addend: 0x0, symName: __Z4idlev, symObjAddr: 0x1B48, symBinAddr: 0x100005290, symSize: 0x2C }
  - { offsetInCU: 0x10BD2, offset: 0x10C25, size: 0x8, addend: 0x0, symName: __Z8keyboardhii, symObjAddr: 0x1B74, symBinAddr: 0x1000052BC, symSize: 0x78 }
  - { offsetInCU: 0x10C1A, offset: 0x10C6D, size: 0x8, addend: 0x0, symName: __Z16run_picflip_demov, symObjAddr: 0x1BEC, symBinAddr: 0x100005334, symSize: 0xF0 }
  - { offsetInCU: 0x10C53, offset: 0x10CA6, size: 0x8, addend: 0x0, symName: __ZN4GridC2Ei, symObjAddr: 0x1CDC, symBinAddr: 0x100005424, symSize: 0x1C4 }
  - { offsetInCU: 0x10C89, offset: 0x10CDC, size: 0x8, addend: 0x0, symName: __ZNSt3__16vectorINS0_I4Vec2NS_9allocatorIS1_EEEENS2_IS4_EEEC1B8ue170006Ev, symObjAddr: 0x1EA0, symBinAddr: 0x1000055E8, symSize: 0x2C }
  - { offsetInCU: 0x10CB1, offset: 0x10D04, size: 0x8, addend: 0x0, symName: __ZNSt3__16vectorINS0_IfNS_9allocatorIfEEEENS1_IS3_EEEC1B8ue170006Ev, symObjAddr: 0x1ECC, symBinAddr: 0x100005614, symSize: 0x2C }
  - { offsetInCU: 0x10CDA, offset: 0x10D2D, size: 0x8, addend: 0x0, symName: __ZNSt3__16vectorI4Vec2NS_9allocatorIS1_EEEC1EmRKS1_, symObjAddr: 0x1EF8, symBinAddr: 0x100005640, symSize: 0x3C }
  - { offsetInCU: 0x10D23, offset: 0x10D76, size: 0x8, addend: 0x0, symName: __ZNSt3__16vectorINS0_I4Vec2NS_9allocatorIS1_EEEENS2_IS4_EEEC1EmRKS4_, symObjAddr: 0x1F34, symBinAddr: 0x10000567C, symSize: 0x3C }
  - { offsetInCU: 0x10D6B, offset: 0x10DBE, size: 0x8, addend: 0x0, symName: __ZNSt3__16vectorINS0_I4Vec2NS_9allocatorIS1_EEEENS2_IS4_EEEaSB8ue170006EOS6_, symObjAddr: 0x1F70, symBinAddr: 0x1000056B8, symSize: 0x34 }
  - { offsetInCU: 0x10DA0, offset: 0x10DF3, size: 0x8, addend: 0x0, symName: __ZNSt3__16vectorINS0_I4Vec2NS_9allocatorIS1_EEEENS2_IS4_EEED1B8ue170006Ev, symObjAddr: 0x1FA4, symBinAddr: 0x1000056EC, symSize: 0x2C }
  - { offsetInCU: 0x10DC8, offset: 0x10E1B, size: 0x8, addend: 0x0, symName: __ZNSt3__16vectorI4Vec2NS_9allocatorIS1_EEED1B8ue170006Ev, symObjAddr: 0x1FD0, symBinAddr: 0x100005718, symSize: 0x2C }
  - { offsetInCU: 0x10DF1, offset: 0x10E44, size: 0x8, addend: 0x0, symName: __ZNSt3__16vectorIfNS_9allocatorIfEEEC1EmRKf, symObjAddr: 0x1FFC, symBinAddr: 0x100005744, symSize: 0x3C }
  - { offsetInCU: 0x10E3A, offset: 0x10E8D, size: 0x8, addend: 0x0, symName: __ZNSt3__16vectorINS0_IfNS_9allocatorIfEEEENS1_IS3_EEEC1EmRKS3_, symObjAddr: 0x2038, symBinAddr: 0x100005780, symSize: 0x3C }
  - { offsetInCU: 0x10E82, offset: 0x10ED5, size: 0x8, addend: 0x0, symName: __ZNSt3__16vectorINS0_IfNS_9allocatorIfEEEENS1_IS3_EEEaSB8ue170006EOS5_, symObjAddr: 0x2074, symBinAddr: 0x1000057BC, symSize: 0x34 }
  - { offsetInCU: 0x10EB7, offset: 0x10F0A, size: 0x8, addend: 0x0, symName: __ZNSt3__16vectorIfNS_9allocatorIfEEED1B8ue170006Ev, symObjAddr: 0x20A8, symBinAddr: 0x1000057F0, symSize: 0x2C }
  - { offsetInCU: 0x10EDF, offset: 0x10F32, size: 0x8, addend: 0x0, symName: __ZNSt3__16vectorINS0_I4Vec2NS_9allocatorIS1_EEEENS2_IS4_EEEC2B8ue170006Ev, symObjAddr: 0x20D4, symBinAddr: 0x10000581C, symSize: 0x4C }
  - { offsetInCU: 0x10F11, offset: 0x10F64, size: 0x8, addend: 0x0, symName: __ZNSt3__117__compressed_pairIPNS_6vectorI4Vec2NS_9allocatorIS2_EEEENS3_IS5_EEEC1B8ue170006IDnNS_18__default_init_tagEEEOT_OT0_, symObjAddr: 0x2120, symBinAddr: 0x100005868, symSize: 0x3C }
  - { offsetInCU: 0x10F67, offset: 0x10FBA, size: 0x8, addend: 0x0, symName: __ZNSt3__117__compressed_pairIPNS_6vectorI4Vec2NS_9allocatorIS2_EEEENS3_IS5_EEEC2B8ue170006IDnNS_18__default_init_tagEEEOT_OT0_, symObjAddr: 0x2168, symBinAddr: 0x1000058B0, symSize: 0x40 }
  - { offsetInCU: 0x10FBE, offset: 0x11011, size: 0x8, addend: 0x0, symName: __ZNSt3__122__compressed_pair_elemIPNS_6vectorI4Vec2NS_9allocatorIS2_EEEELi0ELb0EEC2B8ue170006IDnvEEOT_, symObjAddr: 0x21A8, symBinAddr: 0x1000058F0, symSize: 0x1C }
  - { offsetInCU: 0x10FFE, offset: 0x11051, size: 0x8, addend: 0x0, symName: __ZNSt3__122__compressed_pair_elemINS_9allocatorINS_6vectorI4Vec2NS1_IS3_EEEEEELi1ELb1EEC2B8ue170006ENS_18__default_init_tagE, symObjAddr: 0x21C4, symBinAddr: 0x10000590C, symSize: 0x2C }
  - { offsetInCU: 0x11030, offset: 0x11083, size: 0x8, addend: 0x0, symName: __ZNSt3__19allocatorINS_6vectorI4Vec2NS0_IS2_EEEEEC2B8ue170006Ev, symObjAddr: 0x21F0, symBinAddr: 0x100005938, symSize: 0x2C }
  - { offsetInCU: 0x11059, offset: 0x110AC, size: 0x8, addend: 0x0, symName: __ZNSt3__116__non_trivial_ifILb1ENS_9allocatorINS_6vectorI4Vec2NS1_IS3_EEEEEEEC2B8ue170006Ev, symObjAddr: 0x221C, symBinAddr: 0x100005964, symSize: 0x14 }
  - { offsetInCU: 0x11081, offset: 0x110D4, size: 0x8, addend: 0x0, symName: __ZNSt3__16vectorINS0_IfNS_9allocatorIfEEEENS1_IS3_EEEC2B8ue170006Ev, symObjAddr: 0x2230, symBinAddr: 0x100005978, symSize: 0x4C }
  - { offsetInCU: 0x110A9, offset: 0x110FC, size: 0x8, addend: 0x0, symName: __ZNSt3__117__compressed_pairIPNS_6vectorIfNS_9allocatorIfEEEENS2_IS4_EEEC1B8ue170006IDnNS_18__default_init_tagEEEOT_OT0_, symObjAddr: 0x227C, symBinAddr: 0x1000059C4, symSize: 0x3C }
  - { offsetInCU: 0x110FF, offset: 0x11152, size: 0x8, addend: 0x0, symName: __ZNSt3__117__compressed_pairIPNS_6vectorIfNS_9allocatorIfEEEENS2_IS4_EEEC2B8ue170006IDnNS_18__default_init_tagEEEOT_OT0_, symObjAddr: 0x22B8, symBinAddr: 0x100005A00, symSize: 0x40 }
  - { offsetInCU: 0x11156, offset: 0x111A9, size: 0x8, addend: 0x0, symName: __ZNSt3__122__compressed_pair_elemIPNS_6vectorIfNS_9allocatorIfEEEELi0ELb0EEC2B8ue170006IDnvEEOT_, symObjAddr: 0x22F8, symBinAddr: 0x100005A40, symSize: 0x1C }
  - { offsetInCU: 0x11196, offset: 0x111E9, size: 0x8, addend: 0x0, symName: __ZNSt3__122__compressed_pair_elemINS_9allocatorINS_6vectorIfNS1_IfEEEEEELi1ELb1EEC2B8ue170006ENS_18__default_init_tagE, symObjAddr: 0x2314, symBinAddr: 0x100005A5C, symSize: 0x2C }
  - { offsetInCU: 0x111C8, offset: 0x1121B, size: 0x8, addend: 0x0, symName: __ZNSt3__19allocatorINS_6vectorIfNS0_IfEEEEEC2B8ue170006Ev, symObjAddr: 0x2340, symBinAddr: 0x100005A88, symSize: 0x2C }
  - { offsetInCU: 0x111F1, offset: 0x11244, size: 0x8, addend: 0x0, symName: __ZNSt3__116__non_trivial_ifILb1ENS_9allocatorINS_6vectorIfNS1_IfEEEEEEEC2B8ue170006Ev, symObjAddr: 0x236C, symBinAddr: 0x100005AB4, symSize: 0x14 }
  - { offsetInCU: 0x1121A, offset: 0x1126D, size: 0x8, addend: 0x0, symName: __ZNSt3__16vectorI4Vec2NS_9allocatorIS1_EEEC2EmRKS1_, symObjAddr: 0x2380, symBinAddr: 0x100005AC8, symSize: 0xDC }
  - { offsetInCU: 0x11278, offset: 0x112CB, size: 0x8, addend: 0x0, symName: __ZNSt3__117__compressed_pairIP4Vec2NS_9allocatorIS1_EEEC1B8ue170006IDnNS_18__default_init_tagEEEOT_OT0_, symObjAddr: 0x245C, symBinAddr: 0x100005BA4, symSize: 0x3C }
  - { offsetInCU: 0x112CE, offset: 0x11321, size: 0x8, addend: 0x0, symName: __ZNSt3__16vectorI4Vec2NS_9allocatorIS1_EEE16__destroy_vectorC1B8ue170006ERS4_, symObjAddr: 0x24D8, symBinAddr: 0x100005C20, symSize: 0x34 }
  - { offsetInCU: 0x11306, offset: 0x11359, size: 0x8, addend: 0x0, symName: __ZNSt3__16vectorI4Vec2NS_9allocatorIS1_EEE11__vallocateB8ue170006Em, symObjAddr: 0x250C, symBinAddr: 0x100005C54, symSize: 0xAC }
  - { offsetInCU: 0x11348, offset: 0x1139B, size: 0x8, addend: 0x0, symName: __ZNSt3__16vectorI4Vec2NS_9allocatorIS1_EEE18__construct_at_endEmRKS1_, symObjAddr: 0x25B8, symBinAddr: 0x100005D00, symSize: 0xD0 }
  - { offsetInCU: 0x113C8, offset: 0x1141B, size: 0x8, addend: 0x0, symName: __ZNSt3__128__exception_guard_exceptionsINS_6vectorI4Vec2NS_9allocatorIS2_EEE16__destroy_vectorEE10__completeB8ue170006Ev, symObjAddr: 0x2688, symBinAddr: 0x100005DD0, symSize: 0x1C }
  - { offsetInCU: 0x113EC, offset: 0x1143F, size: 0x8, addend: 0x0, symName: __ZNSt3__128__exception_guard_exceptionsINS_6vectorI4Vec2NS_9allocatorIS2_EEE16__destroy_vectorEED1B8ue170006Ev, symObjAddr: 0x26A4, symBinAddr: 0x100005DEC, symSize: 0x2C }
  - { offsetInCU: 0x11414, offset: 0x11467, size: 0x8, addend: 0x0, symName: __ZNSt3__117__compressed_pairIP4Vec2NS_9allocatorIS1_EEEC2B8ue170006IDnNS_18__default_init_tagEEEOT_OT0_, symObjAddr: 0x26D0, symBinAddr: 0x100005E18, symSize: 0x40 }
  - { offsetInCU: 0x1146B, offset: 0x114BE, size: 0x8, addend: 0x0, symName: __ZNSt3__122__compressed_pair_elemIP4Vec2Li0ELb0EEC2B8ue170006IDnvEEOT_, symObjAddr: 0x2710, symBinAddr: 0x100005E58, symSize: 0x1C }
  - { offsetInCU: 0x114AB, offset: 0x114FE, size: 0x8, addend: 0x0, symName: __ZNSt3__122__compressed_pair_elemINS_9allocatorI4Vec2EELi1ELb1EEC2B8ue170006ENS_18__default_init_tagE, symObjAddr: 0x272C, symBinAddr: 0x100005E74, symSize: 0x2C }
  - { offsetInCU: 0x114DD, offset: 0x11530, size: 0x8, addend: 0x0, symName: __ZNSt3__19allocatorI4Vec2EC2B8ue170006Ev, symObjAddr: 0x2758, symBinAddr: 0x100005EA0, symSize: 0x2C }
  - { offsetInCU: 0x11506, offset: 0x11559, size: 0x8, addend: 0x0, symName: __ZNSt3__116__non_trivial_ifILb1ENS_9allocatorI4Vec2EEEC2B8ue170006Ev, symObjAddr: 0x2784, symBinAddr: 0x100005ECC, symSize: 0x14 }
  - { offsetInCU: 0x1152E, offset: 0x11581, size: 0x8, addend: 0x0, symName: __ZNSt3__128__exception_guard_exceptionsINS_6vectorI4Vec2NS_9allocatorIS2_EEE16__destroy_vectorEEC1B8ue170006ES6_, symObjAddr: 0x2798, symBinAddr: 0x100005EE0, symSize: 0x34 }
  - { offsetInCU: 0x11565, offset: 0x115B8, size: 0x8, addend: 0x0, symName: __ZNSt3__128__exception_guard_exceptionsINS_6vectorI4Vec2NS_9allocatorIS2_EEE16__destroy_vectorEEC2B8ue170006ES6_, symObjAddr: 0x27CC, symBinAddr: 0x100005F14, symSize: 0x24 }
  - { offsetInCU: 0x1159C, offset: 0x115EF, size: 0x8, addend: 0x0, symName: __ZNSt3__16vectorI4Vec2NS_9allocatorIS1_EEE16__destroy_vectorC2B8ue170006ERS4_, symObjAddr: 0x27F0, symBinAddr: 0x100005F38, symSize: 0x20 }
  - { offsetInCU: 0x115D3, offset: 0x11626, size: 0x8, addend: 0x0, symName: __ZNKSt3__16vectorI4Vec2NS_9allocatorIS1_EEE8max_sizeEv, symObjAddr: 0x2810, symBinAddr: 0x100005F58, symSize: 0x60 }
  - { offsetInCU: 0x115FA, offset: 0x1164D, size: 0x8, addend: 0x0, symName: __ZNKSt3__16vectorI4Vec2NS_9allocatorIS1_EEE20__throw_length_errorB8ue170006Ev, symObjAddr: 0x2870, symBinAddr: 0x100005FB8, symSize: 0x1C }
  - { offsetInCU: 0x1161F, offset: 0x11672, size: 0x8, addend: 0x0, symName: __ZNSt3__16vectorI4Vec2NS_9allocatorIS1_EEE7__allocB8ue170006Ev, symObjAddr: 0x28CC, symBinAddr: 0x100006014, symSize: 0x28 }
  - { offsetInCU: 0x11644, offset: 0x11697, size: 0x8, addend: 0x0, symName: __ZNSt3__16vectorI4Vec2NS_9allocatorIS1_EEE9__end_capB8ue170006Ev, symObjAddr: 0x28F4, symBinAddr: 0x10000603C, symSize: 0x28 }
  - { offsetInCU: 0x11669, offset: 0x116BC, size: 0x8, addend: 0x0, symName: __ZNKSt3__16vectorI4Vec2NS_9allocatorIS1_EEE14__annotate_newB8ue170006Em, symObjAddr: 0x291C, symBinAddr: 0x100006064, symSize: 0xAC }
  - { offsetInCU: 0x116A7, offset: 0x116FA, size: 0x8, addend: 0x0, symName: __ZNSt3__116allocator_traitsINS_9allocatorI4Vec2EEE8max_sizeB8ue170006IS3_vEEmRKS3_, symObjAddr: 0x29F4, symBinAddr: 0x10000613C, symSize: 0x24 }
  - { offsetInCU: 0x116D5, offset: 0x11728, size: 0x8, addend: 0x0, symName: __ZNKSt3__16vectorI4Vec2NS_9allocatorIS1_EEE7__allocB8ue170006Ev, symObjAddr: 0x2A18, symBinAddr: 0x100006160, symSize: 0x28 }
  - { offsetInCU: 0x116FA, offset: 0x1174D, size: 0x8, addend: 0x0, symName: __ZNSt3__114numeric_limitsIlE3maxB8ue170006Ev, symObjAddr: 0x2A40, symBinAddr: 0x100006188, symSize: 0x14 }
  - { offsetInCU: 0x11722, offset: 0x11775, size: 0x8, addend: 0x0, symName: __ZNKSt3__16__lessIvvEclB8ue170006ImmEEbRKT_RKT0_, symObjAddr: 0x2AA8, symBinAddr: 0x1000061F0, symSize: 0x34 }
  - { offsetInCU: 0x11775, offset: 0x117C8, size: 0x8, addend: 0x0, symName: __ZNKSt3__19allocatorI4Vec2E8max_sizeB8ue170006Ev, symObjAddr: 0x2ADC, symBinAddr: 0x100006224, symSize: 0x14 }
  - { offsetInCU: 0x1179A, offset: 0x117ED, size: 0x8, addend: 0x0, symName: __ZNKSt3__117__compressed_pairIP4Vec2NS_9allocatorIS1_EEE6secondB8ue170006Ev, symObjAddr: 0x2AF0, symBinAddr: 0x100006238, symSize: 0x24 }
  - { offsetInCU: 0x117BF, offset: 0x11812, size: 0x8, addend: 0x0, symName: __ZNKSt3__122__compressed_pair_elemINS_9allocatorI4Vec2EELi1ELb1EE5__getB8ue170006Ev, symObjAddr: 0x2B14, symBinAddr: 0x10000625C, symSize: 0x14 }
  - { offsetInCU: 0x117E4, offset: 0x11837, size: 0x8, addend: 0x0, symName: __ZNSt3__123__libcpp_numeric_limitsIlLb1EE3maxB8ue170006Ev, symObjAddr: 0x2B28, symBinAddr: 0x100006270, symSize: 0x8 }
  - { offsetInCU: 0x117F7, offset: 0x1184A, size: 0x8, addend: 0x0, symName: __ZNSt12length_errorC1B8ue170006EPKc, symObjAddr: 0x2B94, symBinAddr: 0x1000062DC, symSize: 0x34 }
  - { offsetInCU: 0x1182D, offset: 0x11880, size: 0x8, addend: 0x0, symName: __ZNSt12length_errorC2B8ue170006EPKc, symObjAddr: 0x2BC8, symBinAddr: 0x100006310, symSize: 0x4C }
  - { offsetInCU: 0x11864, offset: 0x118B7, size: 0x8, addend: 0x0, symName: __ZNSt3__19allocatorI4Vec2E8allocateB8ue170006Em, symObjAddr: 0x2C14, symBinAddr: 0x10000635C, symSize: 0x58 }
  - { offsetInCU: 0x11897, offset: 0x118EA, size: 0x8, addend: 0x0, symName: __ZNSt3__117__compressed_pairIP4Vec2NS_9allocatorIS1_EEE6secondB8ue170006Ev, symObjAddr: 0x2D70, symBinAddr: 0x1000064B8, symSize: 0x24 }
  - { offsetInCU: 0x118BC, offset: 0x1190F, size: 0x8, addend: 0x0, symName: __ZNSt3__122__compressed_pair_elemINS_9allocatorI4Vec2EELi1ELb1EE5__getB8ue170006Ev, symObjAddr: 0x2D94, symBinAddr: 0x1000064DC, symSize: 0x14 }
  - { offsetInCU: 0x118E1, offset: 0x11934, size: 0x8, addend: 0x0, symName: __ZNSt3__117__compressed_pairIP4Vec2NS_9allocatorIS1_EEE5firstB8ue170006Ev, symObjAddr: 0x2DA8, symBinAddr: 0x1000064F0, symSize: 0x24 }
  - { offsetInCU: 0x11906, offset: 0x11959, size: 0x8, addend: 0x0, symName: __ZNSt3__122__compressed_pair_elemIP4Vec2Li0ELb0EE5__getB8ue170006Ev, symObjAddr: 0x2DCC, symBinAddr: 0x100006514, symSize: 0x14 }
  - { offsetInCU: 0x1192B, offset: 0x1197E, size: 0x8, addend: 0x0, symName: __ZNKSt3__16vectorI4Vec2NS_9allocatorIS1_EEE31__annotate_contiguous_containerB8ue170006EPKvS6_S6_S6_, symObjAddr: 0x2DE0, symBinAddr: 0x100006528, symSize: 0x20 }
  - { offsetInCU: 0x1197C, offset: 0x119CF, size: 0x8, addend: 0x0, symName: __ZNKSt3__16vectorI4Vec2NS_9allocatorIS1_EEE4dataB8ue170006Ev, symObjAddr: 0x2E00, symBinAddr: 0x100006548, symSize: 0x28 }
  - { offsetInCU: 0x119A1, offset: 0x119F4, size: 0x8, addend: 0x0, symName: __ZNKSt3__16vectorI4Vec2NS_9allocatorIS1_EEE8capacityB8ue170006Ev, symObjAddr: 0x2E28, symBinAddr: 0x100006570, symSize: 0x40 }
  - { offsetInCU: 0x119C6, offset: 0x11A19, size: 0x8, addend: 0x0, symName: __ZNKSt3__16vectorI4Vec2NS_9allocatorIS1_EEE9__end_capB8ue170006Ev, symObjAddr: 0x2E7C, symBinAddr: 0x1000065C4, symSize: 0x28 }
  - { offsetInCU: 0x119EB, offset: 0x11A3E, size: 0x8, addend: 0x0, symName: __ZNKSt3__117__compressed_pairIP4Vec2NS_9allocatorIS1_EEE5firstB8ue170006Ev, symObjAddr: 0x2EA4, symBinAddr: 0x1000065EC, symSize: 0x24 }
  - { offsetInCU: 0x11A10, offset: 0x11A63, size: 0x8, addend: 0x0, symName: __ZNKSt3__122__compressed_pair_elemIP4Vec2Li0ELb0EE5__getB8ue170006Ev, symObjAddr: 0x2EC8, symBinAddr: 0x100006610, symSize: 0x14 }
  - { offsetInCU: 0x11A4D, offset: 0x11AA0, size: 0x8, addend: 0x0, symName: __ZNSt3__16vectorI4Vec2NS_9allocatorIS1_EEE21_ConstructTransactionC1B8ue170006ERS4_m, symObjAddr: 0x2EDC, symBinAddr: 0x100006624, symSize: 0x3C }
  - { offsetInCU: 0x11A94, offset: 0x11AE7, size: 0x8, addend: 0x0, symName: __ZNSt3__116allocator_traitsINS_9allocatorI4Vec2EEE9constructB8ue170006IS2_JRKS2_EvEEvRS3_PT_DpOT0_, symObjAddr: 0x2F18, symBinAddr: 0x100006660, symSize: 0x34 }
  - { offsetInCU: 0x11AEA, offset: 0x11B3D, size: 0x8, addend: 0x0, symName: __ZNSt3__16vectorI4Vec2NS_9allocatorIS1_EEE21_ConstructTransactionD1B8ue170006Ev, symObjAddr: 0x2F4C, symBinAddr: 0x100006694, symSize: 0x2C }
  - { offsetInCU: 0x11B13, offset: 0x11B66, size: 0x8, addend: 0x0, symName: __ZNSt3__16vectorI4Vec2NS_9allocatorIS1_EEE21_ConstructTransactionC2B8ue170006ERS4_m, symObjAddr: 0x2F78, symBinAddr: 0x1000066C0, symSize: 0x44 }
  - { offsetInCU: 0x11B5A, offset: 0x11BAD, size: 0x8, addend: 0x0, symName: __ZNSt3__19allocatorI4Vec2E9constructB8ue170006IS1_JRKS1_EEEvPT_DpOT0_, symObjAddr: 0x2FBC, symBinAddr: 0x100006704, symSize: 0x28 }
  - { offsetInCU: 0x11BAF, offset: 0x11C02, size: 0x8, addend: 0x0, symName: __ZNSt3__16vectorI4Vec2NS_9allocatorIS1_EEE21_ConstructTransactionD2B8ue170006Ev, symObjAddr: 0x2FE4, symBinAddr: 0x10000672C, symSize: 0x20 }
  - { offsetInCU: 0x11BD7, offset: 0x11C2A, size: 0x8, addend: 0x0, symName: __ZNSt3__128__exception_guard_exceptionsINS_6vectorI4Vec2NS_9allocatorIS2_EEE16__destroy_vectorEED2B8ue170006Ev, symObjAddr: 0x3004, symBinAddr: 0x10000674C, symSize: 0x50 }
  - { offsetInCU: 0x11C00, offset: 0x11C53, size: 0x8, addend: 0x0, symName: __ZNSt3__16vectorI4Vec2NS_9allocatorIS1_EEE16__destroy_vectorclB8ue170006Ev, symObjAddr: 0x3054, symBinAddr: 0x10000679C, symSize: 0x90 }
  - { offsetInCU: 0x11C25, offset: 0x11C78, size: 0x8, addend: 0x0, symName: __ZNSt3__16vectorI4Vec2NS_9allocatorIS1_EEE7__clearB8ue170006Ev, symObjAddr: 0x30E4, symBinAddr: 0x10000682C, symSize: 0x28 }
  - { offsetInCU: 0x11C4A, offset: 0x11C9D, size: 0x8, addend: 0x0, symName: __ZNKSt3__16vectorI4Vec2NS_9allocatorIS1_EEE17__annotate_deleteB8ue170006Ev, symObjAddr: 0x310C, symBinAddr: 0x100006854, symSize: 0xB8 }
  - { offsetInCU: 0x11C6F, offset: 0x11CC2, size: 0x8, addend: 0x0, symName: __ZNSt3__116allocator_traitsINS_9allocatorI4Vec2EEE10deallocateB8ue170006ERS3_PS2_m, symObjAddr: 0x31C4, symBinAddr: 0x10000690C, symSize: 0x34 }
  - { offsetInCU: 0x11CB1, offset: 0x11D04, size: 0x8, addend: 0x0, symName: __ZNSt3__16vectorI4Vec2NS_9allocatorIS1_EEE22__base_destruct_at_endB8ue170006EPS1_, symObjAddr: 0x31F8, symBinAddr: 0x100006940, symSize: 0x8C }
  - { offsetInCU: 0x11CF4, offset: 0x11D47, size: 0x8, addend: 0x0, symName: __ZNSt3__116allocator_traitsINS_9allocatorI4Vec2EEE7destroyB8ue170006IS2_vEEvRS3_PT_, symObjAddr: 0x3284, symBinAddr: 0x1000069CC, symSize: 0x2C }
  - { offsetInCU: 0x11D31, offset: 0x11D84, size: 0x8, addend: 0x0, symName: __ZNSt3__19allocatorI4Vec2E7destroyB8ue170006EPS1_, symObjAddr: 0x32B0, symBinAddr: 0x1000069F8, symSize: 0x14 }
  - { offsetInCU: 0x11D64, offset: 0x11DB7, size: 0x8, addend: 0x0, symName: __ZNKSt3__16vectorI4Vec2NS_9allocatorIS1_EEE4sizeB8ue170006Ev, symObjAddr: 0x32C4, symBinAddr: 0x100006A0C, symSize: 0x28 }
  - { offsetInCU: 0x11D89, offset: 0x11DDC, size: 0x8, addend: 0x0, symName: __ZNSt3__19allocatorI4Vec2E10deallocateB8ue170006EPS1_m, symObjAddr: 0x32EC, symBinAddr: 0x100006A34, symSize: 0x40 }
  - { offsetInCU: 0x11DCA, offset: 0x11E1D, size: 0x8, addend: 0x0, symName: __ZNSt3__16vectorINS0_I4Vec2NS_9allocatorIS1_EEEENS2_IS4_EEEC2EmRKS4_, symObjAddr: 0x3434, symBinAddr: 0x100006B7C, symSize: 0xDC }
  - { offsetInCU: 0x11E28, offset: 0x11E7B, size: 0x8, addend: 0x0, symName: __ZNSt3__16vectorINS0_I4Vec2NS_9allocatorIS1_EEEENS2_IS4_EEE16__destroy_vectorC1B8ue170006ERS6_, symObjAddr: 0x3550, symBinAddr: 0x100006C98, symSize: 0x34 }
  - { offsetInCU: 0x11E60, offset: 0x11EB3, size: 0x8, addend: 0x0, symName: __ZNSt3__16vectorINS0_I4Vec2NS_9allocatorIS1_EEEENS2_IS4_EEE11__vallocateB8ue170006Em, symObjAddr: 0x3584, symBinAddr: 0x100006CCC, symSize: 0xB4 }
  - { offsetInCU: 0x11EA2, offset: 0x11EF5, size: 0x8, addend: 0x0, symName: __ZNSt3__16vectorINS0_I4Vec2NS_9allocatorIS1_EEEENS2_IS4_EEE18__construct_at_endEmRKS4_, symObjAddr: 0x3638, symBinAddr: 0x100006D80, symSize: 0xD0 }
  - { offsetInCU: 0x11F22, offset: 0x11F75, size: 0x8, addend: 0x0, symName: __ZNSt3__128__exception_guard_exceptionsINS_6vectorINS1_I4Vec2NS_9allocatorIS2_EEEENS3_IS5_EEE16__destroy_vectorEE10__completeB8ue170006Ev, symObjAddr: 0x3708, symBinAddr: 0x100006E50, symSize: 0x1C }
  - { offsetInCU: 0x11F46, offset: 0x11F99, size: 0x8, addend: 0x0, symName: __ZNSt3__128__exception_guard_exceptionsINS_6vectorINS1_I4Vec2NS_9allocatorIS2_EEEENS3_IS5_EEE16__destroy_vectorEED1B8ue170006Ev, symObjAddr: 0x3724, symBinAddr: 0x100006E6C, symSize: 0x2C }
  - { offsetInCU: 0x11F6E, offset: 0x11FC1, size: 0x8, addend: 0x0, symName: __ZNSt3__128__exception_guard_exceptionsINS_6vectorINS1_I4Vec2NS_9allocatorIS2_EEEENS3_IS5_EEE16__destroy_vectorEEC1B8ue170006ES8_, symObjAddr: 0x3750, symBinAddr: 0x100006E98, symSize: 0x34 }
  - { offsetInCU: 0x11FA5, offset: 0x11FF8, size: 0x8, addend: 0x0, symName: __ZNSt3__128__exception_guard_exceptionsINS_6vectorINS1_I4Vec2NS_9allocatorIS2_EEEENS3_IS5_EEE16__destroy_vectorEEC2B8ue170006ES8_, symObjAddr: 0x3784, symBinAddr: 0x100006ECC, symSize: 0x24 }
  - { offsetInCU: 0x11FDC, offset: 0x1202F, size: 0x8, addend: 0x0, symName: __ZNSt3__16vectorINS0_I4Vec2NS_9allocatorIS1_EEEENS2_IS4_EEE16__destroy_vectorC2B8ue170006ERS6_, symObjAddr: 0x37A8, symBinAddr: 0x100006EF0, symSize: 0x20 }
  - { offsetInCU: 0x12013, offset: 0x12066, size: 0x8, addend: 0x0, symName: __ZNKSt3__16vectorINS0_I4Vec2NS_9allocatorIS1_EEEENS2_IS4_EEE8max_sizeEv, symObjAddr: 0x37C8, symBinAddr: 0x100006F10, symSize: 0x60 }
  - { offsetInCU: 0x1203A, offset: 0x1208D, size: 0x8, addend: 0x0, symName: __ZNKSt3__16vectorINS0_I4Vec2NS_9allocatorIS1_EEEENS2_IS4_EEE20__throw_length_errorB8ue170006Ev, symObjAddr: 0x3828, symBinAddr: 0x100006F70, symSize: 0x1C }
  - { offsetInCU: 0x1205F, offset: 0x120B2, size: 0x8, addend: 0x0, symName: __ZNSt3__16vectorINS0_I4Vec2NS_9allocatorIS1_EEEENS2_IS4_EEE7__allocB8ue170006Ev, symObjAddr: 0x3884, symBinAddr: 0x100006FCC, symSize: 0x28 }
  - { offsetInCU: 0x12084, offset: 0x120D7, size: 0x8, addend: 0x0, symName: __ZNSt3__16vectorINS0_I4Vec2NS_9allocatorIS1_EEEENS2_IS4_EEE9__end_capB8ue170006Ev, symObjAddr: 0x38AC, symBinAddr: 0x100006FF4, symSize: 0x28 }
  - { offsetInCU: 0x120A9, offset: 0x120FC, size: 0x8, addend: 0x0, symName: __ZNKSt3__16vectorINS0_I4Vec2NS_9allocatorIS1_EEEENS2_IS4_EEE14__annotate_newB8ue170006Em, symObjAddr: 0x38D4, symBinAddr: 0x10000701C, symSize: 0xC8 }
  - { offsetInCU: 0x120E7, offset: 0x1213A, size: 0x8, addend: 0x0, symName: __ZNSt3__116allocator_traitsINS_9allocatorINS_6vectorI4Vec2NS1_IS3_EEEEEEE8max_sizeB8ue170006IS6_vEEmRKS6_, symObjAddr: 0x399C, symBinAddr: 0x1000070E4, symSize: 0x24 }
  - { offsetInCU: 0x12115, offset: 0x12168, size: 0x8, addend: 0x0, symName: __ZNKSt3__16vectorINS0_I4Vec2NS_9allocatorIS1_EEEENS2_IS4_EEE7__allocB8ue170006Ev, symObjAddr: 0x39C0, symBinAddr: 0x100007108, symSize: 0x28 }
  - { offsetInCU: 0x1213A, offset: 0x1218D, size: 0x8, addend: 0x0, symName: __ZNKSt3__19allocatorINS_6vectorI4Vec2NS0_IS2_EEEEE8max_sizeB8ue170006Ev, symObjAddr: 0x39E8, symBinAddr: 0x100007130, symSize: 0x18 }
  - { offsetInCU: 0x1215F, offset: 0x121B2, size: 0x8, addend: 0x0, symName: __ZNKSt3__117__compressed_pairIPNS_6vectorI4Vec2NS_9allocatorIS2_EEEENS3_IS5_EEE6secondB8ue170006Ev, symObjAddr: 0x3A00, symBinAddr: 0x100007148, symSize: 0x24 }
  - { offsetInCU: 0x12184, offset: 0x121D7, size: 0x8, addend: 0x0, symName: __ZNKSt3__122__compressed_pair_elemINS_9allocatorINS_6vectorI4Vec2NS1_IS3_EEEEEELi1ELb1EE5__getB8ue170006Ev, symObjAddr: 0x3A24, symBinAddr: 0x10000716C, symSize: 0x14 }
  - { offsetInCU: 0x121A9, offset: 0x121FC, size: 0x8, addend: 0x0, symName: __ZNSt3__19allocatorINS_6vectorI4Vec2NS0_IS2_EEEEE8allocateB8ue170006Em, symObjAddr: 0x3A38, symBinAddr: 0x100007180, symSize: 0x5C }
  - { offsetInCU: 0x121DC, offset: 0x1222F, size: 0x8, addend: 0x0, symName: __ZNSt3__117__compressed_pairIPNS_6vectorI4Vec2NS_9allocatorIS2_EEEENS3_IS5_EEE6secondB8ue170006Ev, symObjAddr: 0x3A94, symBinAddr: 0x1000071DC, symSize: 0x24 }
  - { offsetInCU: 0x12201, offset: 0x12254, size: 0x8, addend: 0x0, symName: __ZNSt3__122__compressed_pair_elemINS_9allocatorINS_6vectorI4Vec2NS1_IS3_EEEEEELi1ELb1EE5__getB8ue170006Ev, symObjAddr: 0x3AB8, symBinAddr: 0x100007200, symSize: 0x14 }
  - { offsetInCU: 0x12226, offset: 0x12279, size: 0x8, addend: 0x0, symName: __ZNSt3__117__compressed_pairIPNS_6vectorI4Vec2NS_9allocatorIS2_EEEENS3_IS5_EEE5firstB8ue170006Ev, symObjAddr: 0x3ACC, symBinAddr: 0x100007214, symSize: 0x24 }
  - { offsetInCU: 0x1224B, offset: 0x1229E, size: 0x8, addend: 0x0, symName: __ZNSt3__122__compressed_pair_elemIPNS_6vectorI4Vec2NS_9allocatorIS2_EEEELi0ELb0EE5__getB8ue170006Ev, symObjAddr: 0x3AF0, symBinAddr: 0x100007238, symSize: 0x14 }
  - { offsetInCU: 0x12270, offset: 0x122C3, size: 0x8, addend: 0x0, symName: __ZNKSt3__16vectorINS0_I4Vec2NS_9allocatorIS1_EEEENS2_IS4_EEE31__annotate_contiguous_containerB8ue170006EPKvS8_S8_S8_, symObjAddr: 0x3B04, symBinAddr: 0x10000724C, symSize: 0x20 }
  - { offsetInCU: 0x122C1, offset: 0x12314, size: 0x8, addend: 0x0, symName: __ZNKSt3__16vectorINS0_I4Vec2NS_9allocatorIS1_EEEENS2_IS4_EEE4dataB8ue170006Ev, symObjAddr: 0x3B24, symBinAddr: 0x10000726C, symSize: 0x28 }
  - { offsetInCU: 0x122E6, offset: 0x12339, size: 0x8, addend: 0x0, symName: __ZNKSt3__16vectorINS0_I4Vec2NS_9allocatorIS1_EEEENS2_IS4_EEE8capacityB8ue170006Ev, symObjAddr: 0x3B4C, symBinAddr: 0x100007294, symSize: 0x40 }
  - { offsetInCU: 0x1230B, offset: 0x1235E, size: 0x8, addend: 0x0, symName: __ZNKSt3__16vectorINS0_I4Vec2NS_9allocatorIS1_EEEENS2_IS4_EEE9__end_capB8ue170006Ev, symObjAddr: 0x3BA0, symBinAddr: 0x1000072E8, symSize: 0x28 }
  - { offsetInCU: 0x12330, offset: 0x12383, size: 0x8, addend: 0x0, symName: __ZNKSt3__117__compressed_pairIPNS_6vectorI4Vec2NS_9allocatorIS2_EEEENS3_IS5_EEE5firstB8ue170006Ev, symObjAddr: 0x3BC8, symBinAddr: 0x100007310, symSize: 0x24 }
  - { offsetInCU: 0x12355, offset: 0x123A8, size: 0x8, addend: 0x0, symName: __ZNKSt3__122__compressed_pair_elemIPNS_6vectorI4Vec2NS_9allocatorIS2_EEEELi0ELb0EE5__getB8ue170006Ev, symObjAddr: 0x3BEC, symBinAddr: 0x100007334, symSize: 0x14 }
  - { offsetInCU: 0x12392, offset: 0x123E5, size: 0x8, addend: 0x0, symName: __ZNSt3__16vectorINS0_I4Vec2NS_9allocatorIS1_EEEENS2_IS4_EEE21_ConstructTransactionC1B8ue170006ERS6_m, symObjAddr: 0x3C00, symBinAddr: 0x100007348, symSize: 0x3C }
  - { offsetInCU: 0x123D9, offset: 0x1242C, size: 0x8, addend: 0x0, symName: __ZNSt3__116allocator_traitsINS_9allocatorINS_6vectorI4Vec2NS1_IS3_EEEEEEE9constructB8ue170006IS5_JRKS5_EvEEvRS6_PT_DpOT0_, symObjAddr: 0x3C3C, symBinAddr: 0x100007384, symSize: 0x34 }
  - { offsetInCU: 0x1242F, offset: 0x12482, size: 0x8, addend: 0x0, symName: __ZNSt3__16vectorINS0_I4Vec2NS_9allocatorIS1_EEEENS2_IS4_EEE21_ConstructTransactionD1B8ue170006Ev, symObjAddr: 0x3C70, symBinAddr: 0x1000073B8, symSize: 0x2C }
  - { offsetInCU: 0x12458, offset: 0x124AB, size: 0x8, addend: 0x0, symName: __ZNSt3__16vectorINS0_I4Vec2NS_9allocatorIS1_EEEENS2_IS4_EEE21_ConstructTransactionC2B8ue170006ERS6_m, symObjAddr: 0x3C9C, symBinAddr: 0x1000073E4, symSize: 0x4C }
  - { offsetInCU: 0x1249F, offset: 0x124F2, size: 0x8, addend: 0x0, symName: __ZNSt3__19allocatorINS_6vectorI4Vec2NS0_IS2_EEEEE9constructB8ue170006IS4_JRKS4_EEEvPT_DpOT0_, symObjAddr: 0x3CE8, symBinAddr: 0x100007430, symSize: 0x30 }
  - { offsetInCU: 0x124F4, offset: 0x12547, size: 0x8, addend: 0x0, symName: __ZNSt3__16vectorI4Vec2NS_9allocatorIS1_EEEC1ERKS4_, symObjAddr: 0x3D18, symBinAddr: 0x100007460, symSize: 0x34 }
  - { offsetInCU: 0x1252E, offset: 0x12581, size: 0x8, addend: 0x0, symName: __ZNSt3__16vectorI4Vec2NS_9allocatorIS1_EEEC2ERKS4_, symObjAddr: 0x3D4C, symBinAddr: 0x100007494, symSize: 0x94 }
  - { offsetInCU: 0x12568, offset: 0x125BB, size: 0x8, addend: 0x0, symName: __ZNSt3__116allocator_traitsINS_9allocatorI4Vec2EEE37select_on_container_copy_constructionB8ue170006IS3_vvEES3_RKS3_, symObjAddr: 0x3DE0, symBinAddr: 0x100007528, symSize: 0x10 }
  - { offsetInCU: 0x1259B, offset: 0x125EE, size: 0x8, addend: 0x0, symName: __ZNSt3__117__compressed_pairIP4Vec2NS_9allocatorIS1_EEEC1B8ue170006IDnS4_EEOT_OT0_, symObjAddr: 0x3DF0, symBinAddr: 0x100007538, symSize: 0x3C }
  - { offsetInCU: 0x125F2, offset: 0x12645, size: 0x8, addend: 0x0, symName: __ZNSt3__16vectorI4Vec2NS_9allocatorIS1_EEE16__init_with_sizeB8ue170006IPS1_S6_EEvT_T0_m, symObjAddr: 0x3E2C, symBinAddr: 0x100007574, symSize: 0xB8 }
  - { offsetInCU: 0x12664, offset: 0x126B7, size: 0x8, addend: 0x0, symName: __ZNSt3__117__compressed_pairIP4Vec2NS_9allocatorIS1_EEEC2B8ue170006IDnS4_EEOT_OT0_, symObjAddr: 0x3EE4, symBinAddr: 0x10000762C, symSize: 0x44 }
  - { offsetInCU: 0x126BB, offset: 0x1270E, size: 0x8, addend: 0x0, symName: __ZNSt3__122__compressed_pair_elemINS_9allocatorI4Vec2EELi1ELb1EEC2B8ue170006IS3_vEEOT_, symObjAddr: 0x3F28, symBinAddr: 0x100007670, symSize: 0x18 }
  - { offsetInCU: 0x126FB, offset: 0x1274E, size: 0x8, addend: 0x0, symName: __ZNSt3__16vectorI4Vec2NS_9allocatorIS1_EEE18__construct_at_endIPS1_S6_EEvT_T0_m, symObjAddr: 0x3F40, symBinAddr: 0x100007688, symSize: 0x8C }
  - { offsetInCU: 0x1278D, offset: 0x127E0, size: 0x8, addend: 0x0, symName: __ZNSt3__14pairIP4Vec2S2_EC1B8ue170006IS2_S2_LPv0EEEOT_OT0_, symObjAddr: 0x417C, symBinAddr: 0x1000078C4, symSize: 0x3C }
  - { offsetInCU: 0x127EA, offset: 0x1283D, size: 0x8, addend: 0x0, symName: __ZNSt3__14pairIP4Vec2S2_EC2B8ue170006IS2_S2_LPv0EEEOT_OT0_, symObjAddr: 0x41B8, symBinAddr: 0x100007900, symSize: 0x34 }
  - { offsetInCU: 0x12851, offset: 0x128A4, size: 0x8, addend: 0x0, symName: __ZNKSt3__114__copy_trivialclB8ue170006I4Vec2S2_Li0EEENS_4pairIPT_PT0_EES5_S5_S7_, symObjAddr: 0x4368, symBinAddr: 0x100007AB0, symSize: 0x48 }
  - { offsetInCU: 0x128B7, offset: 0x1290A, size: 0x8, addend: 0x0, symName: __ZNSt3__14pairIP4Vec2S2_EC1B8ue170006IRS2_S2_LPv0EEEOT_OT0_, symObjAddr: 0x44F8, symBinAddr: 0x100007C40, symSize: 0x3C }
  - { offsetInCU: 0x12914, offset: 0x12967, size: 0x8, addend: 0x0, symName: __ZNSt3__14pairIP4Vec2S2_EC2B8ue170006IRS2_S2_LPv0EEEOT_OT0_, symObjAddr: 0x4534, symBinAddr: 0x100007C7C, symSize: 0x34 }
  - { offsetInCU: 0x12971, offset: 0x129C4, size: 0x8, addend: 0x0, symName: __ZNSt3__118__unwrap_iter_implIP4Vec2Lb1EE8__unwrapB8ue170006ES2_, symObjAddr: 0x4568, symBinAddr: 0x100007CB0, symSize: 0x24 }
  - { offsetInCU: 0x12994, offset: 0x129E7, size: 0x8, addend: 0x0, symName: __ZNSt3__118__unwrap_iter_implIP4Vec2Lb1EE8__rewrapB8ue170006ES2_S2_, symObjAddr: 0x458C, symBinAddr: 0x100007CD4, symSize: 0x50 }
  - { offsetInCU: 0x129C5, offset: 0x12A18, size: 0x8, addend: 0x0, symName: __ZNSt3__16vectorINS0_I4Vec2NS_9allocatorIS1_EEEENS2_IS4_EEE21_ConstructTransactionD2B8ue170006Ev, symObjAddr: 0x45DC, symBinAddr: 0x100007D24, symSize: 0x20 }
  - { offsetInCU: 0x129ED, offset: 0x12A40, size: 0x8, addend: 0x0, symName: __ZNSt3__128__exception_guard_exceptionsINS_6vectorINS1_I4Vec2NS_9allocatorIS2_EEEENS3_IS5_EEE16__destroy_vectorEED2B8ue170006Ev, symObjAddr: 0x45FC, symBinAddr: 0x100007D44, symSize: 0x50 }
  - { offsetInCU: 0x12A16, offset: 0x12A69, size: 0x8, addend: 0x0, symName: __ZNSt3__16vectorINS0_I4Vec2NS_9allocatorIS1_EEEENS2_IS4_EEE16__destroy_vectorclB8ue170006Ev, symObjAddr: 0x464C, symBinAddr: 0x100007D94, symSize: 0x90 }
  - { offsetInCU: 0x12A3B, offset: 0x12A8E, size: 0x8, addend: 0x0, symName: __ZNSt3__16vectorINS0_I4Vec2NS_9allocatorIS1_EEEENS2_IS4_EEE7__clearB8ue170006Ev, symObjAddr: 0x46DC, symBinAddr: 0x100007E24, symSize: 0x28 }
  - { offsetInCU: 0x12A60, offset: 0x12AB3, size: 0x8, addend: 0x0, symName: __ZNKSt3__16vectorINS0_I4Vec2NS_9allocatorIS1_EEEENS2_IS4_EEE17__annotate_deleteB8ue170006Ev, symObjAddr: 0x4704, symBinAddr: 0x100007E4C, symSize: 0xD4 }
  - { offsetInCU: 0x12A85, offset: 0x12AD8, size: 0x8, addend: 0x0, symName: __ZNSt3__116allocator_traitsINS_9allocatorINS_6vectorI4Vec2NS1_IS3_EEEEEEE10deallocateB8ue170006ERS6_PS5_m, symObjAddr: 0x47D8, symBinAddr: 0x100007F20, symSize: 0x34 }
  - { offsetInCU: 0x12AC7, offset: 0x12B1A, size: 0x8, addend: 0x0, symName: __ZNSt3__16vectorINS0_I4Vec2NS_9allocatorIS1_EEEENS2_IS4_EEE22__base_destruct_at_endB8ue170006EPS4_, symObjAddr: 0x480C, symBinAddr: 0x100007F54, symSize: 0x8C }
  - { offsetInCU: 0x12B0A, offset: 0x12B5D, size: 0x8, addend: 0x0, symName: __ZNSt3__116allocator_traitsINS_9allocatorINS_6vectorI4Vec2NS1_IS3_EEEEEEE7destroyB8ue170006IS5_vEEvRS6_PT_, symObjAddr: 0x4898, symBinAddr: 0x100007FE0, symSize: 0x2C }
  - { offsetInCU: 0x12B47, offset: 0x12B9A, size: 0x8, addend: 0x0, symName: __ZNSt3__19allocatorINS_6vectorI4Vec2NS0_IS2_EEEEE7destroyB8ue170006EPS4_, symObjAddr: 0x48C4, symBinAddr: 0x10000800C, symSize: 0x28 }
  - { offsetInCU: 0x12B7A, offset: 0x12BCD, size: 0x8, addend: 0x0, symName: __ZNKSt3__16vectorINS0_I4Vec2NS_9allocatorIS1_EEEENS2_IS4_EEE4sizeB8ue170006Ev, symObjAddr: 0x48EC, symBinAddr: 0x100008034, symSize: 0x28 }
  - { offsetInCU: 0x12B9F, offset: 0x12BF2, size: 0x8, addend: 0x0, symName: __ZNSt3__19allocatorINS_6vectorI4Vec2NS0_IS2_EEEEE10deallocateB8ue170006EPS4_m, symObjAddr: 0x4914, symBinAddr: 0x10000805C, symSize: 0x44 }
  - { offsetInCU: 0x12BDF, offset: 0x12C32, size: 0x8, addend: 0x0, symName: __ZNSt3__16vectorINS0_I4Vec2NS_9allocatorIS1_EEEENS2_IS4_EEE13__move_assignERS6_NS_17integral_constantIbLb1EEE, symObjAddr: 0x4958, symBinAddr: 0x1000080A0, symSize: 0x94 }
  - { offsetInCU: 0x12C1F, offset: 0x12C72, size: 0x8, addend: 0x0, symName: __ZNSt3__16vectorINS0_I4Vec2NS_9allocatorIS1_EEEENS2_IS4_EEE13__vdeallocateEv, symObjAddr: 0x49EC, symBinAddr: 0x100008134, symSize: 0x94 }
  - { offsetInCU: 0x12C46, offset: 0x12C99, size: 0x8, addend: 0x0, symName: __ZNSt3__16vectorINS0_I4Vec2NS_9allocatorIS1_EEEENS2_IS4_EEE19__move_assign_allocB8ue170006ERS6_, symObjAddr: 0x4A80, symBinAddr: 0x1000081C8, symSize: 0x2C }
  - { offsetInCU: 0x12C7A, offset: 0x12CCD, size: 0x8, addend: 0x0, symName: __ZNSt3__16vectorINS0_I4Vec2NS_9allocatorIS1_EEEENS2_IS4_EEE5clearB8ue170006Ev, symObjAddr: 0x4AAC, symBinAddr: 0x1000081F4, symSize: 0x44 }
  - { offsetInCU: 0x12CAE, offset: 0x12D01, size: 0x8, addend: 0x0, symName: __ZNKSt3__16vectorINS0_I4Vec2NS_9allocatorIS1_EEEENS2_IS4_EEE17__annotate_shrinkB8ue170006Em, symObjAddr: 0x4AF0, symBinAddr: 0x100008238, symSize: 0xD0 }
  - { offsetInCU: 0x12CE2, offset: 0x12D35, size: 0x8, addend: 0x0, symName: __ZNSt3__16vectorINS0_I4Vec2NS_9allocatorIS1_EEEENS2_IS4_EEE19__move_assign_allocB8ue170006ERS6_NS_17integral_constantIbLb1EEE, symObjAddr: 0x4BC0, symBinAddr: 0x100008308, symSize: 0x38 }
  - { offsetInCU: 0x12D20, offset: 0x12D73, size: 0x8, addend: 0x0, symName: __ZNSt3__16vectorINS0_I4Vec2NS_9allocatorIS1_EEEENS2_IS4_EEED2B8ue170006Ev, symObjAddr: 0x4BF8, symBinAddr: 0x100008340, symSize: 0x40 }
  - { offsetInCU: 0x12D48, offset: 0x12D9B, size: 0x8, addend: 0x0, symName: __ZNSt3__16vectorI4Vec2NS_9allocatorIS1_EEED2B8ue170006Ev, symObjAddr: 0x4C38, symBinAddr: 0x100008380, symSize: 0x40 }
  - { offsetInCU: 0x12D71, offset: 0x12DC4, size: 0x8, addend: 0x0, symName: __ZNSt3__16vectorIfNS_9allocatorIfEEEC2EmRKf, symObjAddr: 0x4C78, symBinAddr: 0x1000083C0, symSize: 0xDC }
  - { offsetInCU: 0x12DCF, offset: 0x12E22, size: 0x8, addend: 0x0, symName: __ZNSt3__117__compressed_pairIPfNS_9allocatorIfEEEC1B8ue170006IDnNS_18__default_init_tagEEEOT_OT0_, symObjAddr: 0x4D54, symBinAddr: 0x10000849C, symSize: 0x3C }
  - { offsetInCU: 0x12E25, offset: 0x12E78, size: 0x8, addend: 0x0, symName: __ZNSt3__16vectorIfNS_9allocatorIfEEE16__destroy_vectorC1B8ue170006ERS3_, symObjAddr: 0x4DD0, symBinAddr: 0x100008518, symSize: 0x34 }
  - { offsetInCU: 0x12E5D, offset: 0x12EB0, size: 0x8, addend: 0x0, symName: __ZNSt3__16vectorIfNS_9allocatorIfEEE11__vallocateB8ue170006Em, symObjAddr: 0x4E04, symBinAddr: 0x10000854C, symSize: 0xAC }
  - { offsetInCU: 0x12E9F, offset: 0x12EF2, size: 0x8, addend: 0x0, symName: __ZNSt3__16vectorIfNS_9allocatorIfEEE18__construct_at_endEmRKf, symObjAddr: 0x4EB0, symBinAddr: 0x1000085F8, symSize: 0xD0 }
  - { offsetInCU: 0x12F1F, offset: 0x12F72, size: 0x8, addend: 0x0, symName: __ZNSt3__128__exception_guard_exceptionsINS_6vectorIfNS_9allocatorIfEEE16__destroy_vectorEE10__completeB8ue170006Ev, symObjAddr: 0x4F80, symBinAddr: 0x1000086C8, symSize: 0x1C }
  - { offsetInCU: 0x12F43, offset: 0x12F96, size: 0x8, addend: 0x0, symName: __ZNSt3__128__exception_guard_exceptionsINS_6vectorIfNS_9allocatorIfEEE16__destroy_vectorEED1B8ue170006Ev, symObjAddr: 0x4F9C, symBinAddr: 0x1000086E4, symSize: 0x2C }
  - { offsetInCU: 0x12F6B, offset: 0x12FBE, size: 0x8, addend: 0x0, symName: __ZNSt3__117__compressed_pairIPfNS_9allocatorIfEEEC2B8ue170006IDnNS_18__default_init_tagEEEOT_OT0_, symObjAddr: 0x4FC8, symBinAddr: 0x100008710, symSize: 0x40 }
  - { offsetInCU: 0x12FC2, offset: 0x13015, size: 0x8, addend: 0x0, symName: __ZNSt3__122__compressed_pair_elemIPfLi0ELb0EEC2B8ue170006IDnvEEOT_, symObjAddr: 0x5008, symBinAddr: 0x100008750, symSize: 0x1C }
  - { offsetInCU: 0x13002, offset: 0x13055, size: 0x8, addend: 0x0, symName: __ZNSt3__122__compressed_pair_elemINS_9allocatorIfEELi1ELb1EEC2B8ue170006ENS_18__default_init_tagE, symObjAddr: 0x5024, symBinAddr: 0x10000876C, symSize: 0x2C }
  - { offsetInCU: 0x13034, offset: 0x13087, size: 0x8, addend: 0x0, symName: __ZNSt3__19allocatorIfEC2B8ue170006Ev, symObjAddr: 0x5050, symBinAddr: 0x100008798, symSize: 0x2C }
  - { offsetInCU: 0x1305D, offset: 0x130B0, size: 0x8, addend: 0x0, symName: __ZNSt3__116__non_trivial_ifILb1ENS_9allocatorIfEEEC2B8ue170006Ev, symObjAddr: 0x507C, symBinAddr: 0x1000087C4, symSize: 0x14 }
  - { offsetInCU: 0x13085, offset: 0x130D8, size: 0x8, addend: 0x0, symName: __ZNSt3__128__exception_guard_exceptionsINS_6vectorIfNS_9allocatorIfEEE16__destroy_vectorEEC1B8ue170006ES5_, symObjAddr: 0x5090, symBinAddr: 0x1000087D8, symSize: 0x34 }
  - { offsetInCU: 0x130BC, offset: 0x1310F, size: 0x8, addend: 0x0, symName: __ZNSt3__128__exception_guard_exceptionsINS_6vectorIfNS_9allocatorIfEEE16__destroy_vectorEEC2B8ue170006ES5_, symObjAddr: 0x50C4, symBinAddr: 0x10000880C, symSize: 0x24 }
  - { offsetInCU: 0x130F3, offset: 0x13146, size: 0x8, addend: 0x0, symName: __ZNSt3__16vectorIfNS_9allocatorIfEEE16__destroy_vectorC2B8ue170006ERS3_, symObjAddr: 0x50E8, symBinAddr: 0x100008830, symSize: 0x20 }
  - { offsetInCU: 0x1312A, offset: 0x1317D, size: 0x8, addend: 0x0, symName: __ZNKSt3__16vectorIfNS_9allocatorIfEEE8max_sizeEv, symObjAddr: 0x5108, symBinAddr: 0x100008850, symSize: 0x60 }
  - { offsetInCU: 0x13151, offset: 0x131A4, size: 0x8, addend: 0x0, symName: __ZNKSt3__16vectorIfNS_9allocatorIfEEE20__throw_length_errorB8ue170006Ev, symObjAddr: 0x5168, symBinAddr: 0x1000088B0, symSize: 0x1C }
  - { offsetInCU: 0x13176, offset: 0x131C9, size: 0x8, addend: 0x0, symName: __ZNSt3__16vectorIfNS_9allocatorIfEEE7__allocB8ue170006Ev, symObjAddr: 0x51C4, symBinAddr: 0x10000890C, symSize: 0x28 }
  - { offsetInCU: 0x1319B, offset: 0x131EE, size: 0x8, addend: 0x0, symName: __ZNSt3__16vectorIfNS_9allocatorIfEEE9__end_capB8ue170006Ev, symObjAddr: 0x51EC, symBinAddr: 0x100008934, symSize: 0x28 }
  - { offsetInCU: 0x131C0, offset: 0x13213, size: 0x8, addend: 0x0, symName: __ZNKSt3__16vectorIfNS_9allocatorIfEEE14__annotate_newB8ue170006Em, symObjAddr: 0x5214, symBinAddr: 0x10000895C, symSize: 0xAC }
  - { offsetInCU: 0x131FE, offset: 0x13251, size: 0x8, addend: 0x0, symName: __ZNSt3__116allocator_traitsINS_9allocatorIfEEE8max_sizeB8ue170006IS2_vEEmRKS2_, symObjAddr: 0x52C0, symBinAddr: 0x100008A08, symSize: 0x24 }
  - { offsetInCU: 0x1322C, offset: 0x1327F, size: 0x8, addend: 0x0, symName: __ZNKSt3__16vectorIfNS_9allocatorIfEEE7__allocB8ue170006Ev, symObjAddr: 0x52E4, symBinAddr: 0x100008A2C, symSize: 0x28 }
  - { offsetInCU: 0x13251, offset: 0x132A4, size: 0x8, addend: 0x0, symName: __ZNKSt3__19allocatorIfE8max_sizeB8ue170006Ev, symObjAddr: 0x530C, symBinAddr: 0x100008A54, symSize: 0x14 }
  - { offsetInCU: 0x13276, offset: 0x132C9, size: 0x8, addend: 0x0, symName: __ZNKSt3__117__compressed_pairIPfNS_9allocatorIfEEE6secondB8ue170006Ev, symObjAddr: 0x5320, symBinAddr: 0x100008A68, symSize: 0x24 }
  - { offsetInCU: 0x1329B, offset: 0x132EE, size: 0x8, addend: 0x0, symName: __ZNKSt3__122__compressed_pair_elemINS_9allocatorIfEELi1ELb1EE5__getB8ue170006Ev, symObjAddr: 0x5344, symBinAddr: 0x100008A8C, symSize: 0x14 }
  - { offsetInCU: 0x132C0, offset: 0x13313, size: 0x8, addend: 0x0, symName: __ZNSt3__19allocatorIfE8allocateB8ue170006Em, symObjAddr: 0x5358, symBinAddr: 0x100008AA0, symSize: 0x58 }
  - { offsetInCU: 0x132F3, offset: 0x13346, size: 0x8, addend: 0x0, symName: __ZNSt3__117__compressed_pairIPfNS_9allocatorIfEEE6secondB8ue170006Ev, symObjAddr: 0x53B0, symBinAddr: 0x100008AF8, symSize: 0x24 }
  - { offsetInCU: 0x13318, offset: 0x1336B, size: 0x8, addend: 0x0, symName: __ZNSt3__122__compressed_pair_elemINS_9allocatorIfEELi1ELb1EE5__getB8ue170006Ev, symObjAddr: 0x53D4, symBinAddr: 0x100008B1C, symSize: 0x14 }
  - { offsetInCU: 0x1333D, offset: 0x13390, size: 0x8, addend: 0x0, symName: __ZNSt3__117__compressed_pairIPfNS_9allocatorIfEEE5firstB8ue170006Ev, symObjAddr: 0x53E8, symBinAddr: 0x100008B30, symSize: 0x24 }
  - { offsetInCU: 0x13362, offset: 0x133B5, size: 0x8, addend: 0x0, symName: __ZNSt3__122__compressed_pair_elemIPfLi0ELb0EE5__getB8ue170006Ev, symObjAddr: 0x540C, symBinAddr: 0x100008B54, symSize: 0x14 }
  - { offsetInCU: 0x13387, offset: 0x133DA, size: 0x8, addend: 0x0, symName: __ZNKSt3__16vectorIfNS_9allocatorIfEEE31__annotate_contiguous_containerB8ue170006EPKvS5_S5_S5_, symObjAddr: 0x5420, symBinAddr: 0x100008B68, symSize: 0x20 }
  - { offsetInCU: 0x133D8, offset: 0x1342B, size: 0x8, addend: 0x0, symName: __ZNKSt3__16vectorIfNS_9allocatorIfEEE4dataB8ue170006Ev, symObjAddr: 0x5440, symBinAddr: 0x100008B88, symSize: 0x28 }
  - { offsetInCU: 0x133FD, offset: 0x13450, size: 0x8, addend: 0x0, symName: __ZNKSt3__16vectorIfNS_9allocatorIfEEE8capacityB8ue170006Ev, symObjAddr: 0x5468, symBinAddr: 0x100008BB0, symSize: 0x40 }
  - { offsetInCU: 0x13422, offset: 0x13475, size: 0x8, addend: 0x0, symName: __ZNKSt3__16vectorIfNS_9allocatorIfEEE9__end_capB8ue170006Ev, symObjAddr: 0x54BC, symBinAddr: 0x100008C04, symSize: 0x28 }
  - { offsetInCU: 0x13447, offset: 0x1349A, size: 0x8, addend: 0x0, symName: __ZNKSt3__117__compressed_pairIPfNS_9allocatorIfEEE5firstB8ue170006Ev, symObjAddr: 0x54E4, symBinAddr: 0x100008C2C, symSize: 0x24 }
  - { offsetInCU: 0x1346C, offset: 0x134BF, size: 0x8, addend: 0x0, symName: __ZNKSt3__122__compressed_pair_elemIPfLi0ELb0EE5__getB8ue170006Ev, symObjAddr: 0x5508, symBinAddr: 0x100008C50, symSize: 0x14 }
  - { offsetInCU: 0x134A9, offset: 0x134FC, size: 0x8, addend: 0x0, symName: __ZNSt3__16vectorIfNS_9allocatorIfEEE21_ConstructTransactionC1B8ue170006ERS3_m, symObjAddr: 0x551C, symBinAddr: 0x100008C64, symSize: 0x3C }
  - { offsetInCU: 0x134F0, offset: 0x13543, size: 0x8, addend: 0x0, symName: __ZNSt3__116allocator_traitsINS_9allocatorIfEEE9constructB8ue170006IfJRKfEvEEvRS2_PT_DpOT0_, symObjAddr: 0x5558, symBinAddr: 0x100008CA0, symSize: 0x34 }
  - { offsetInCU: 0x13546, offset: 0x13599, size: 0x8, addend: 0x0, symName: __ZNSt3__16vectorIfNS_9allocatorIfEEE21_ConstructTransactionD1B8ue170006Ev, symObjAddr: 0x558C, symBinAddr: 0x100008CD4, symSize: 0x2C }
  - { offsetInCU: 0x1356F, offset: 0x135C2, size: 0x8, addend: 0x0, symName: __ZNSt3__16vectorIfNS_9allocatorIfEEE21_ConstructTransactionC2B8ue170006ERS3_m, symObjAddr: 0x55B8, symBinAddr: 0x100008D00, symSize: 0x44 }
  - { offsetInCU: 0x135B6, offset: 0x13609, size: 0x8, addend: 0x0, symName: __ZNSt3__19allocatorIfE9constructB8ue170006IfJRKfEEEvPT_DpOT0_, symObjAddr: 0x55FC, symBinAddr: 0x100008D44, symSize: 0x28 }
  - { offsetInCU: 0x1360B, offset: 0x1365E, size: 0x8, addend: 0x0, symName: __ZNSt3__16vectorIfNS_9allocatorIfEEE21_ConstructTransactionD2B8ue170006Ev, symObjAddr: 0x5624, symBinAddr: 0x100008D6C, symSize: 0x20 }
  - { offsetInCU: 0x13633, offset: 0x13686, size: 0x8, addend: 0x0, symName: __ZNSt3__128__exception_guard_exceptionsINS_6vectorIfNS_9allocatorIfEEE16__destroy_vectorEED2B8ue170006Ev, symObjAddr: 0x5644, symBinAddr: 0x100008D8C, symSize: 0x50 }
  - { offsetInCU: 0x1365C, offset: 0x136AF, size: 0x8, addend: 0x0, symName: __ZNSt3__16vectorIfNS_9allocatorIfEEE16__destroy_vectorclB8ue170006Ev, symObjAddr: 0x5694, symBinAddr: 0x100008DDC, symSize: 0x90 }
  - { offsetInCU: 0x13681, offset: 0x136D4, size: 0x8, addend: 0x0, symName: __ZNSt3__16vectorIfNS_9allocatorIfEEE7__clearB8ue170006Ev, symObjAddr: 0x5724, symBinAddr: 0x100008E6C, symSize: 0x28 }
  - { offsetInCU: 0x136A6, offset: 0x136F9, size: 0x8, addend: 0x0, symName: __ZNKSt3__16vectorIfNS_9allocatorIfEEE17__annotate_deleteB8ue170006Ev, symObjAddr: 0x574C, symBinAddr: 0x100008E94, symSize: 0xB8 }
  - { offsetInCU: 0x136CB, offset: 0x1371E, size: 0x8, addend: 0x0, symName: __ZNSt3__116allocator_traitsINS_9allocatorIfEEE10deallocateB8ue170006ERS2_Pfm, symObjAddr: 0x5804, symBinAddr: 0x100008F4C, symSize: 0x34 }
  - { offsetInCU: 0x1370D, offset: 0x13760, size: 0x8, addend: 0x0, symName: __ZNSt3__16vectorIfNS_9allocatorIfEEE22__base_destruct_at_endB8ue170006EPf, symObjAddr: 0x5838, symBinAddr: 0x100008F80, symSize: 0x8C }
  - { offsetInCU: 0x13750, offset: 0x137A3, size: 0x8, addend: 0x0, symName: __ZNSt3__116allocator_traitsINS_9allocatorIfEEE7destroyB8ue170006IfvEEvRS2_PT_, symObjAddr: 0x58C4, symBinAddr: 0x10000900C, symSize: 0x2C }
  - { offsetInCU: 0x1378D, offset: 0x137E0, size: 0x8, addend: 0x0, symName: __ZNSt3__19allocatorIfE7destroyB8ue170006EPf, symObjAddr: 0x58F0, symBinAddr: 0x100009038, symSize: 0x14 }
  - { offsetInCU: 0x137C0, offset: 0x13813, size: 0x8, addend: 0x0, symName: __ZNKSt3__16vectorIfNS_9allocatorIfEEE4sizeB8ue170006Ev, symObjAddr: 0x5904, symBinAddr: 0x10000904C, symSize: 0x28 }
  - { offsetInCU: 0x137E5, offset: 0x13838, size: 0x8, addend: 0x0, symName: __ZNSt3__19allocatorIfE10deallocateB8ue170006EPfm, symObjAddr: 0x592C, symBinAddr: 0x100009074, symSize: 0x40 }
  - { offsetInCU: 0x13826, offset: 0x13879, size: 0x8, addend: 0x0, symName: __ZNSt3__16vectorINS0_IfNS_9allocatorIfEEEENS1_IS3_EEEC2EmRKS3_, symObjAddr: 0x596C, symBinAddr: 0x1000090B4, symSize: 0xDC }
  - { offsetInCU: 0x13884, offset: 0x138D7, size: 0x8, addend: 0x0, symName: __ZNSt3__16vectorINS0_IfNS_9allocatorIfEEEENS1_IS3_EEE16__destroy_vectorC1B8ue170006ERS5_, symObjAddr: 0x5A88, symBinAddr: 0x1000091D0, symSize: 0x34 }
  - { offsetInCU: 0x138BC, offset: 0x1390F, size: 0x8, addend: 0x0, symName: __ZNSt3__16vectorINS0_IfNS_9allocatorIfEEEENS1_IS3_EEE11__vallocateB8ue170006Em, symObjAddr: 0x5ABC, symBinAddr: 0x100009204, symSize: 0xB4 }
  - { offsetInCU: 0x138FE, offset: 0x13951, size: 0x8, addend: 0x0, symName: __ZNSt3__16vectorINS0_IfNS_9allocatorIfEEEENS1_IS3_EEE18__construct_at_endEmRKS3_, symObjAddr: 0x5B70, symBinAddr: 0x1000092B8, symSize: 0xD0 }
  - { offsetInCU: 0x1397E, offset: 0x139D1, size: 0x8, addend: 0x0, symName: __ZNSt3__128__exception_guard_exceptionsINS_6vectorINS1_IfNS_9allocatorIfEEEENS2_IS4_EEE16__destroy_vectorEE10__completeB8ue170006Ev, symObjAddr: 0x5C40, symBinAddr: 0x100009388, symSize: 0x1C }
  - { offsetInCU: 0x139A2, offset: 0x139F5, size: 0x8, addend: 0x0, symName: __ZNSt3__128__exception_guard_exceptionsINS_6vectorINS1_IfNS_9allocatorIfEEEENS2_IS4_EEE16__destroy_vectorEED1B8ue170006Ev, symObjAddr: 0x5C5C, symBinAddr: 0x1000093A4, symSize: 0x2C }
  - { offsetInCU: 0x139CA, offset: 0x13A1D, size: 0x8, addend: 0x0, symName: __ZNSt3__128__exception_guard_exceptionsINS_6vectorINS1_IfNS_9allocatorIfEEEENS2_IS4_EEE16__destroy_vectorEEC1B8ue170006ES7_, symObjAddr: 0x5C88, symBinAddr: 0x1000093D0, symSize: 0x34 }
  - { offsetInCU: 0x13A01, offset: 0x13A54, size: 0x8, addend: 0x0, symName: __ZNSt3__128__exception_guard_exceptionsINS_6vectorINS1_IfNS_9allocatorIfEEEENS2_IS4_EEE16__destroy_vectorEEC2B8ue170006ES7_, symObjAddr: 0x5CBC, symBinAddr: 0x100009404, symSize: 0x24 }
  - { offsetInCU: 0x13A38, offset: 0x13A8B, size: 0x8, addend: 0x0, symName: __ZNSt3__16vectorINS0_IfNS_9allocatorIfEEEENS1_IS3_EEE16__destroy_vectorC2B8ue170006ERS5_, symObjAddr: 0x5CE0, symBinAddr: 0x100009428, symSize: 0x20 }
  - { offsetInCU: 0x13A6F, offset: 0x13AC2, size: 0x8, addend: 0x0, symName: __ZNKSt3__16vectorINS0_IfNS_9allocatorIfEEEENS1_IS3_EEE8max_sizeEv, symObjAddr: 0x5D00, symBinAddr: 0x100009448, symSize: 0x60 }
  - { offsetInCU: 0x13A96, offset: 0x13AE9, size: 0x8, addend: 0x0, symName: __ZNKSt3__16vectorINS0_IfNS_9allocatorIfEEEENS1_IS3_EEE20__throw_length_errorB8ue170006Ev, symObjAddr: 0x5D60, symBinAddr: 0x1000094A8, symSize: 0x1C }
  - { offsetInCU: 0x13ABB, offset: 0x13B0E, size: 0x8, addend: 0x0, symName: __ZNSt3__16vectorINS0_IfNS_9allocatorIfEEEENS1_IS3_EEE7__allocB8ue170006Ev, symObjAddr: 0x5DBC, symBinAddr: 0x100009504, symSize: 0x28 }
  - { offsetInCU: 0x13AE0, offset: 0x13B33, size: 0x8, addend: 0x0, symName: __ZNSt3__16vectorINS0_IfNS_9allocatorIfEEEENS1_IS3_EEE9__end_capB8ue170006Ev, symObjAddr: 0x5DE4, symBinAddr: 0x10000952C, symSize: 0x28 }
  - { offsetInCU: 0x13B05, offset: 0x13B58, size: 0x8, addend: 0x0, symName: __ZNKSt3__16vectorINS0_IfNS_9allocatorIfEEEENS1_IS3_EEE14__annotate_newB8ue170006Em, symObjAddr: 0x5E0C, symBinAddr: 0x100009554, symSize: 0xC8 }
  - { offsetInCU: 0x13B43, offset: 0x13B96, size: 0x8, addend: 0x0, symName: __ZNSt3__116allocator_traitsINS_9allocatorINS_6vectorIfNS1_IfEEEEEEE8max_sizeB8ue170006IS5_vEEmRKS5_, symObjAddr: 0x5ED4, symBinAddr: 0x10000961C, symSize: 0x24 }
  - { offsetInCU: 0x13B71, offset: 0x13BC4, size: 0x8, addend: 0x0, symName: __ZNKSt3__16vectorINS0_IfNS_9allocatorIfEEEENS1_IS3_EEE7__allocB8ue170006Ev, symObjAddr: 0x5EF8, symBinAddr: 0x100009640, symSize: 0x28 }
  - { offsetInCU: 0x13B96, offset: 0x13BE9, size: 0x8, addend: 0x0, symName: __ZNKSt3__19allocatorINS_6vectorIfNS0_IfEEEEE8max_sizeB8ue170006Ev, symObjAddr: 0x5F20, symBinAddr: 0x100009668, symSize: 0x18 }
  - { offsetInCU: 0x13BBB, offset: 0x13C0E, size: 0x8, addend: 0x0, symName: __ZNKSt3__117__compressed_pairIPNS_6vectorIfNS_9allocatorIfEEEENS2_IS4_EEE6secondB8ue170006Ev, symObjAddr: 0x5F38, symBinAddr: 0x100009680, symSize: 0x24 }
  - { offsetInCU: 0x13BE0, offset: 0x13C33, size: 0x8, addend: 0x0, symName: __ZNKSt3__122__compressed_pair_elemINS_9allocatorINS_6vectorIfNS1_IfEEEEEELi1ELb1EE5__getB8ue170006Ev, symObjAddr: 0x5F5C, symBinAddr: 0x1000096A4, symSize: 0x14 }
  - { offsetInCU: 0x13C05, offset: 0x13C58, size: 0x8, addend: 0x0, symName: __ZNSt3__19allocatorINS_6vectorIfNS0_IfEEEEE8allocateB8ue170006Em, symObjAddr: 0x5F70, symBinAddr: 0x1000096B8, symSize: 0x5C }
  - { offsetInCU: 0x13C38, offset: 0x13C8B, size: 0x8, addend: 0x0, symName: __ZNSt3__117__compressed_pairIPNS_6vectorIfNS_9allocatorIfEEEENS2_IS4_EEE6secondB8ue170006Ev, symObjAddr: 0x5FCC, symBinAddr: 0x100009714, symSize: 0x24 }
  - { offsetInCU: 0x13C5D, offset: 0x13CB0, size: 0x8, addend: 0x0, symName: __ZNSt3__122__compressed_pair_elemINS_9allocatorINS_6vectorIfNS1_IfEEEEEELi1ELb1EE5__getB8ue170006Ev, symObjAddr: 0x5FF0, symBinAddr: 0x100009738, symSize: 0x14 }
  - { offsetInCU: 0x13C82, offset: 0x13CD5, size: 0x8, addend: 0x0, symName: __ZNSt3__117__compressed_pairIPNS_6vectorIfNS_9allocatorIfEEEENS2_IS4_EEE5firstB8ue170006Ev, symObjAddr: 0x6004, symBinAddr: 0x10000974C, symSize: 0x24 }
  - { offsetInCU: 0x13CA7, offset: 0x13CFA, size: 0x8, addend: 0x0, symName: __ZNSt3__122__compressed_pair_elemIPNS_6vectorIfNS_9allocatorIfEEEELi0ELb0EE5__getB8ue170006Ev, symObjAddr: 0x6028, symBinAddr: 0x100009770, symSize: 0x14 }
  - { offsetInCU: 0x13CCC, offset: 0x13D1F, size: 0x8, addend: 0x0, symName: __ZNKSt3__16vectorINS0_IfNS_9allocatorIfEEEENS1_IS3_EEE31__annotate_contiguous_containerB8ue170006EPKvS7_S7_S7_, symObjAddr: 0x603C, symBinAddr: 0x100009784, symSize: 0x20 }
  - { offsetInCU: 0x13D1D, offset: 0x13D70, size: 0x8, addend: 0x0, symName: __ZNKSt3__16vectorINS0_IfNS_9allocatorIfEEEENS1_IS3_EEE4dataB8ue170006Ev, symObjAddr: 0x605C, symBinAddr: 0x1000097A4, symSize: 0x28 }
  - { offsetInCU: 0x13D42, offset: 0x13D95, size: 0x8, addend: 0x0, symName: __ZNKSt3__16vectorINS0_IfNS_9allocatorIfEEEENS1_IS3_EEE8capacityB8ue170006Ev, symObjAddr: 0x6084, symBinAddr: 0x1000097CC, symSize: 0x40 }
  - { offsetInCU: 0x13D67, offset: 0x13DBA, size: 0x8, addend: 0x0, symName: __ZNKSt3__16vectorINS0_IfNS_9allocatorIfEEEENS1_IS3_EEE9__end_capB8ue170006Ev, symObjAddr: 0x60D8, symBinAddr: 0x100009820, symSize: 0x28 }
  - { offsetInCU: 0x13D8C, offset: 0x13DDF, size: 0x8, addend: 0x0, symName: __ZNKSt3__117__compressed_pairIPNS_6vectorIfNS_9allocatorIfEEEENS2_IS4_EEE5firstB8ue170006Ev, symObjAddr: 0x6100, symBinAddr: 0x100009848, symSize: 0x24 }
  - { offsetInCU: 0x13DB1, offset: 0x13E04, size: 0x8, addend: 0x0, symName: __ZNKSt3__122__compressed_pair_elemIPNS_6vectorIfNS_9allocatorIfEEEELi0ELb0EE5__getB8ue170006Ev, symObjAddr: 0x6124, symBinAddr: 0x10000986C, symSize: 0x14 }
  - { offsetInCU: 0x13DEE, offset: 0x13E41, size: 0x8, addend: 0x0, symName: __ZNSt3__16vectorINS0_IfNS_9allocatorIfEEEENS1_IS3_EEE21_ConstructTransactionC1B8ue170006ERS5_m, symObjAddr: 0x6138, symBinAddr: 0x100009880, symSize: 0x3C }
  - { offsetInCU: 0x13E35, offset: 0x13E88, size: 0x8, addend: 0x0, symName: __ZNSt3__116allocator_traitsINS_9allocatorINS_6vectorIfNS1_IfEEEEEEE9constructB8ue170006IS4_JRKS4_EvEEvRS5_PT_DpOT0_, symObjAddr: 0x6174, symBinAddr: 0x1000098BC, symSize: 0x34 }
  - { offsetInCU: 0x13E8B, offset: 0x13EDE, size: 0x8, addend: 0x0, symName: __ZNSt3__16vectorINS0_IfNS_9allocatorIfEEEENS1_IS3_EEE21_ConstructTransactionD1B8ue170006Ev, symObjAddr: 0x61A8, symBinAddr: 0x1000098F0, symSize: 0x2C }
  - { offsetInCU: 0x13EB4, offset: 0x13F07, size: 0x8, addend: 0x0, symName: __ZNSt3__16vectorINS0_IfNS_9allocatorIfEEEENS1_IS3_EEE21_ConstructTransactionC2B8ue170006ERS5_m, symObjAddr: 0x61D4, symBinAddr: 0x10000991C, symSize: 0x4C }
  - { offsetInCU: 0x13EFB, offset: 0x13F4E, size: 0x8, addend: 0x0, symName: __ZNSt3__19allocatorINS_6vectorIfNS0_IfEEEEE9constructB8ue170006IS3_JRKS3_EEEvPT_DpOT0_, symObjAddr: 0x6220, symBinAddr: 0x100009968, symSize: 0x30 }
  - { offsetInCU: 0x13F50, offset: 0x13FA3, size: 0x8, addend: 0x0, symName: __ZNSt3__16vectorIfNS_9allocatorIfEEEC1ERKS3_, symObjAddr: 0x6250, symBinAddr: 0x100009998, symSize: 0x34 }
  - { offsetInCU: 0x13F8A, offset: 0x13FDD, size: 0x8, addend: 0x0, symName: __ZNSt3__16vectorIfNS_9allocatorIfEEEC2ERKS3_, symObjAddr: 0x6284, symBinAddr: 0x1000099CC, symSize: 0x94 }
  - { offsetInCU: 0x13FC4, offset: 0x14017, size: 0x8, addend: 0x0, symName: __ZNSt3__116allocator_traitsINS_9allocatorIfEEE37select_on_container_copy_constructionB8ue170006IS2_vvEES2_RKS2_, symObjAddr: 0x6318, symBinAddr: 0x100009A60, symSize: 0x10 }
  - { offsetInCU: 0x13FF7, offset: 0x1404A, size: 0x8, addend: 0x0, symName: __ZNSt3__117__compressed_pairIPfNS_9allocatorIfEEEC1B8ue170006IDnS3_EEOT_OT0_, symObjAddr: 0x6328, symBinAddr: 0x100009A70, symSize: 0x3C }
  - { offsetInCU: 0x1404E, offset: 0x140A1, size: 0x8, addend: 0x0, symName: __ZNSt3__16vectorIfNS_9allocatorIfEEE16__init_with_sizeB8ue170006IPfS5_EEvT_T0_m, symObjAddr: 0x6364, symBinAddr: 0x100009AAC, symSize: 0xB8 }
  - { offsetInCU: 0x140C0, offset: 0x14113, size: 0x8, addend: 0x0, symName: __ZNSt3__117__compressed_pairIPfNS_9allocatorIfEEEC2B8ue170006IDnS3_EEOT_OT0_, symObjAddr: 0x641C, symBinAddr: 0x100009B64, symSize: 0x44 }
  - { offsetInCU: 0x14117, offset: 0x1416A, size: 0x8, addend: 0x0, symName: __ZNSt3__122__compressed_pair_elemINS_9allocatorIfEELi1ELb1EEC2B8ue170006IS2_vEEOT_, symObjAddr: 0x6460, symBinAddr: 0x100009BA8, symSize: 0x18 }
  - { offsetInCU: 0x14157, offset: 0x141AA, size: 0x8, addend: 0x0, symName: __ZNSt3__16vectorIfNS_9allocatorIfEEE18__construct_at_endIPfS5_EEvT_T0_m, symObjAddr: 0x6478, symBinAddr: 0x100009BC0, symSize: 0x8C }
  - { offsetInCU: 0x141E9, offset: 0x1423C, size: 0x8, addend: 0x0, symName: __ZNSt3__14pairIPfS1_EC1B8ue170006IS1_S1_LPv0EEEOT_OT0_, symObjAddr: 0x66B4, symBinAddr: 0x100009DFC, symSize: 0x3C }
  - { offsetInCU: 0x14246, offset: 0x14299, size: 0x8, addend: 0x0, symName: __ZNSt3__14pairIPfS1_EC2B8ue170006IS1_S1_LPv0EEEOT_OT0_, symObjAddr: 0x66F0, symBinAddr: 0x100009E38, symSize: 0x34 }
  - { offsetInCU: 0x142A3, offset: 0x142F6, size: 0x8, addend: 0x0, symName: __ZNKSt3__114__copy_trivialclB8ue170006IffLi0EEENS_4pairIPT_PT0_EES4_S4_S6_, symObjAddr: 0x68A0, symBinAddr: 0x100009FE8, symSize: 0x48 }
  - { offsetInCU: 0x14309, offset: 0x1435C, size: 0x8, addend: 0x0, symName: __ZNSt3__14pairIPfS1_EC1B8ue170006IRS1_S1_LPv0EEEOT_OT0_, symObjAddr: 0x6A30, symBinAddr: 0x10000A178, symSize: 0x3C }
  - { offsetInCU: 0x14366, offset: 0x143B9, size: 0x8, addend: 0x0, symName: __ZNSt3__14pairIPfS1_EC2B8ue170006IRS1_S1_LPv0EEEOT_OT0_, symObjAddr: 0x6A6C, symBinAddr: 0x10000A1B4, symSize: 0x34 }
  - { offsetInCU: 0x143C3, offset: 0x14416, size: 0x8, addend: 0x0, symName: __ZNSt3__118__unwrap_iter_implIPfLb1EE8__unwrapB8ue170006ES1_, symObjAddr: 0x6AA0, symBinAddr: 0x10000A1E8, symSize: 0x24 }
  - { offsetInCU: 0x143E6, offset: 0x14439, size: 0x8, addend: 0x0, symName: __ZNSt3__118__unwrap_iter_implIPfLb1EE8__rewrapB8ue170006ES1_S1_, symObjAddr: 0x6AC4, symBinAddr: 0x10000A20C, symSize: 0x50 }
  - { offsetInCU: 0x14417, offset: 0x1446A, size: 0x8, addend: 0x0, symName: __ZNSt3__16vectorINS0_IfNS_9allocatorIfEEEENS1_IS3_EEE21_ConstructTransactionD2B8ue170006Ev, symObjAddr: 0x6B14, symBinAddr: 0x10000A25C, symSize: 0x20 }
  - { offsetInCU: 0x1443F, offset: 0x14492, size: 0x8, addend: 0x0, symName: __ZNSt3__128__exception_guard_exceptionsINS_6vectorINS1_IfNS_9allocatorIfEEEENS2_IS4_EEE16__destroy_vectorEED2B8ue170006Ev, symObjAddr: 0x6B34, symBinAddr: 0x10000A27C, symSize: 0x50 }
  - { offsetInCU: 0x14468, offset: 0x144BB, size: 0x8, addend: 0x0, symName: __ZNSt3__16vectorINS0_IfNS_9allocatorIfEEEENS1_IS3_EEE16__destroy_vectorclB8ue170006Ev, symObjAddr: 0x6B84, symBinAddr: 0x10000A2CC, symSize: 0x90 }
  - { offsetInCU: 0x1448D, offset: 0x144E0, size: 0x8, addend: 0x0, symName: __ZNSt3__16vectorINS0_IfNS_9allocatorIfEEEENS1_IS3_EEE7__clearB8ue170006Ev, symObjAddr: 0x6C14, symBinAddr: 0x10000A35C, symSize: 0x28 }
  - { offsetInCU: 0x144B2, offset: 0x14505, size: 0x8, addend: 0x0, symName: __ZNKSt3__16vectorINS0_IfNS_9allocatorIfEEEENS1_IS3_EEE17__annotate_deleteB8ue170006Ev, symObjAddr: 0x6C3C, symBinAddr: 0x10000A384, symSize: 0xD4 }
  - { offsetInCU: 0x144D7, offset: 0x1452A, size: 0x8, addend: 0x0, symName: __ZNSt3__116allocator_traitsINS_9allocatorINS_6vectorIfNS1_IfEEEEEEE10deallocateB8ue170006ERS5_PS4_m, symObjAddr: 0x6D10, symBinAddr: 0x10000A458, symSize: 0x34 }
  - { offsetInCU: 0x14519, offset: 0x1456C, size: 0x8, addend: 0x0, symName: __ZNSt3__16vectorINS0_IfNS_9allocatorIfEEEENS1_IS3_EEE22__base_destruct_at_endB8ue170006EPS3_, symObjAddr: 0x6D44, symBinAddr: 0x10000A48C, symSize: 0x8C }
  - { offsetInCU: 0x1455C, offset: 0x145AF, size: 0x8, addend: 0x0, symName: __ZNSt3__116allocator_traitsINS_9allocatorINS_6vectorIfNS1_IfEEEEEEE7destroyB8ue170006IS4_vEEvRS5_PT_, symObjAddr: 0x6DD0, symBinAddr: 0x10000A518, symSize: 0x2C }
  - { offsetInCU: 0x14599, offset: 0x145EC, size: 0x8, addend: 0x0, symName: __ZNSt3__19allocatorINS_6vectorIfNS0_IfEEEEE7destroyB8ue170006EPS3_, symObjAddr: 0x6DFC, symBinAddr: 0x10000A544, symSize: 0x28 }
  - { offsetInCU: 0x145CC, offset: 0x1461F, size: 0x8, addend: 0x0, symName: __ZNKSt3__16vectorINS0_IfNS_9allocatorIfEEEENS1_IS3_EEE4sizeB8ue170006Ev, symObjAddr: 0x6E24, symBinAddr: 0x10000A56C, symSize: 0x28 }
  - { offsetInCU: 0x145F1, offset: 0x14644, size: 0x8, addend: 0x0, symName: __ZNSt3__19allocatorINS_6vectorIfNS0_IfEEEEE10deallocateB8ue170006EPS3_m, symObjAddr: 0x6E4C, symBinAddr: 0x10000A594, symSize: 0x44 }
  - { offsetInCU: 0x14631, offset: 0x14684, size: 0x8, addend: 0x0, symName: __ZNSt3__16vectorINS0_IfNS_9allocatorIfEEEENS1_IS3_EEE13__move_assignERS5_NS_17integral_constantIbLb1EEE, symObjAddr: 0x6E90, symBinAddr: 0x10000A5D8, symSize: 0x94 }
  - { offsetInCU: 0x14671, offset: 0x146C4, size: 0x8, addend: 0x0, symName: __ZNSt3__16vectorINS0_IfNS_9allocatorIfEEEENS1_IS3_EEE13__vdeallocateEv, symObjAddr: 0x6F24, symBinAddr: 0x10000A66C, symSize: 0x94 }
  - { offsetInCU: 0x14698, offset: 0x146EB, size: 0x8, addend: 0x0, symName: __ZNSt3__16vectorINS0_IfNS_9allocatorIfEEEENS1_IS3_EEE19__move_assign_allocB8ue170006ERS5_, symObjAddr: 0x6FB8, symBinAddr: 0x10000A700, symSize: 0x2C }
  - { offsetInCU: 0x146CC, offset: 0x1471F, size: 0x8, addend: 0x0, symName: __ZNSt3__16vectorINS0_IfNS_9allocatorIfEEEENS1_IS3_EEE5clearB8ue170006Ev, symObjAddr: 0x6FE4, symBinAddr: 0x10000A72C, symSize: 0x44 }
  - { offsetInCU: 0x14700, offset: 0x14753, size: 0x8, addend: 0x0, symName: __ZNKSt3__16vectorINS0_IfNS_9allocatorIfEEEENS1_IS3_EEE17__annotate_shrinkB8ue170006Em, symObjAddr: 0x7028, symBinAddr: 0x10000A770, symSize: 0xD0 }
  - { offsetInCU: 0x14734, offset: 0x14787, size: 0x8, addend: 0x0, symName: __ZNSt3__16vectorINS0_IfNS_9allocatorIfEEEENS1_IS3_EEE19__move_assign_allocB8ue170006ERS5_NS_17integral_constantIbLb1EEE, symObjAddr: 0x70F8, symBinAddr: 0x10000A840, symSize: 0x38 }
  - { offsetInCU: 0x14772, offset: 0x147C5, size: 0x8, addend: 0x0, symName: __ZNSt3__16vectorIfNS_9allocatorIfEEED2B8ue170006Ev, symObjAddr: 0x7130, symBinAddr: 0x10000A878, symSize: 0x40 }
  - { offsetInCU: 0x1479B, offset: 0x147EE, size: 0x8, addend: 0x0, symName: __ZN4GridD2Ev, symObjAddr: 0x7170, symBinAddr: 0x10000A8B8, symSize: 0x50 }
  - { offsetInCU: 0x147C6, offset: 0x14819, size: 0x8, addend: 0x0, symName: __ZN4Vec2C2Eff, symObjAddr: 0x71C0, symBinAddr: 0x10000A908, symSize: 0x2C }
  - { offsetInCU: 0x1480B, offset: 0x1485E, size: 0x8, addend: 0x0, symName: __ZNKSt3__111__wrap_iterIP8ParticleE4baseB8ue170006Ev, symObjAddr: 0x7234, symBinAddr: 0x10000A97C, symSize: 0x18 }
  - { offsetInCU: 0x1482F, offset: 0x14882, size: 0x8, addend: 0x0, symName: __ZNSt3__16vectorINS0_IfNS_9allocatorIfEEEENS1_IS3_EEED2B8ue170006Ev, symObjAddr: 0x724C, symBinAddr: 0x10000A994, symSize: 0x40 }
  - { offsetInCU: 0x14858, offset: 0x148AB, size: 0x8, addend: 0x0, symName: __ZNSt3__16vectorINS0_I4Vec2NS_9allocatorIS1_EEEENS2_IS4_EEE19__copy_assign_allocB8ue170006ERKS6_, symObjAddr: 0x728C, symBinAddr: 0x10000A9D4, symSize: 0x2C }
  - { offsetInCU: 0x1488B, offset: 0x148DE, size: 0x8, addend: 0x0, symName: __ZNSt3__16vectorINS0_I4Vec2NS_9allocatorIS1_EEEENS2_IS4_EEE6assignIPS4_Li0EEEvT_S9_, symObjAddr: 0x72B8, symBinAddr: 0x10000AA00, symSize: 0x5C }
  - { offsetInCU: 0x148DF, offset: 0x14932, size: 0x8, addend: 0x0, symName: __ZNSt3__16vectorINS0_I4Vec2NS_9allocatorIS1_EEEENS2_IS4_EEE19__copy_assign_allocB8ue170006ERKS6_NS_17integral_constantIbLb0EEE, symObjAddr: 0x7314, symBinAddr: 0x10000AA5C, symSize: 0x14 }
  - { offsetInCU: 0x14919, offset: 0x1496C, size: 0x8, addend: 0x0, symName: __ZNSt3__16vectorINS0_I4Vec2NS_9allocatorIS1_EEEENS2_IS4_EEE18__assign_with_sizeB8ue170006IPS4_S8_EEvT_T0_l, symObjAddr: 0x7328, symBinAddr: 0x10000AA70, symSize: 0x164 }
  - { offsetInCU: 0x149C7, offset: 0x14A1A, size: 0x8, addend: 0x0, symName: __ZNSt3__16vectorINS0_I4Vec2NS_9allocatorIS1_EEEENS2_IS4_EEE18__construct_at_endIPS4_S8_EEvT_T0_m, symObjAddr: 0x752C, symBinAddr: 0x10000AC74, symSize: 0x8C }
  - { offsetInCU: 0x14A3C, offset: 0x14A8F, size: 0x8, addend: 0x0, symName: __ZNSt3__16vectorINS0_I4Vec2NS_9allocatorIS1_EEEENS2_IS4_EEE17__destruct_at_endB8ue170006EPS4_, symObjAddr: 0x75FC, symBinAddr: 0x10000AD44, symSize: 0x4C }
  - { offsetInCU: 0x14A7E, offset: 0x14AD1, size: 0x8, addend: 0x0, symName: __ZNKSt3__16vectorINS0_I4Vec2NS_9allocatorIS1_EEEENS2_IS4_EEE11__recommendB8ue170006Em, symObjAddr: 0x7648, symBinAddr: 0x10000AD90, symSize: 0xB4 }
  - { offsetInCU: 0x14AEF, offset: 0x14B42, size: 0x8, addend: 0x0, symName: __ZNSt3__14pairIPNS_6vectorI4Vec2NS_9allocatorIS2_EEEES6_EC1B8ue170006IS6_S6_LPv0EEEOT_OT0_, symObjAddr: 0x79E4, symBinAddr: 0x10000B12C, symSize: 0x3C }
  - { offsetInCU: 0x14B4C, offset: 0x14B9F, size: 0x8, addend: 0x0, symName: __ZNSt3__14pairIPNS_6vectorI4Vec2NS_9allocatorIS2_EEEES6_EC2B8ue170006IS6_S6_LPv0EEEOT_OT0_, symObjAddr: 0x7A20, symBinAddr: 0x10000B168, symSize: 0x34 }
  - { offsetInCU: 0x14BA8, offset: 0x14BFB, size: 0x8, addend: 0x0, symName: __ZNSt3__129_AllocatorDestroyRangeReverseINS_9allocatorINS_6vectorI4Vec2NS1_IS3_EEEEEEPS5_EC1B8ue170006ERS6_RS7_SA_, symObjAddr: 0x7AA0, symBinAddr: 0x10000B1E8, symSize: 0x44 }
  - { offsetInCU: 0x14BFE, offset: 0x14C51, size: 0x8, addend: 0x0, symName: __ZNSt3__116allocator_traitsINS_9allocatorINS_6vectorI4Vec2NS1_IS3_EEEEEEE9constructB8ue170006IS5_JRS5_EvEEvRS6_PT_DpOT0_, symObjAddr: 0x7AE4, symBinAddr: 0x10000B22C, symSize: 0x34 }
  - { offsetInCU: 0x14C55, offset: 0x14CA8, size: 0x8, addend: 0x0, symName: __ZNSt3__128__exception_guard_exceptionsINS_29_AllocatorDestroyRangeReverseINS_9allocatorINS_6vectorI4Vec2NS2_IS4_EEEEEEPS6_EEE10__completeB8ue170006Ev, symObjAddr: 0x7B18, symBinAddr: 0x10000B260, symSize: 0x1C }
  - { offsetInCU: 0x14C79, offset: 0x14CCC, size: 0x8, addend: 0x0, symName: __ZNSt3__128__exception_guard_exceptionsINS_29_AllocatorDestroyRangeReverseINS_9allocatorINS_6vectorI4Vec2NS2_IS4_EEEEEEPS6_EEED1B8ue170006Ev, symObjAddr: 0x7B34, symBinAddr: 0x10000B27C, symSize: 0x2C }
  - { offsetInCU: 0x14CA1, offset: 0x14CF4, size: 0x8, addend: 0x0, symName: __ZNSt3__128__exception_guard_exceptionsINS_29_AllocatorDestroyRangeReverseINS_9allocatorINS_6vectorI4Vec2NS2_IS4_EEEEEEPS6_EEEC1B8ue170006ES9_, symObjAddr: 0x7B60, symBinAddr: 0x10000B2A8, symSize: 0x34 }
  - { offsetInCU: 0x14CD9, offset: 0x14D2C, size: 0x8, addend: 0x0, symName: __ZNSt3__128__exception_guard_exceptionsINS_29_AllocatorDestroyRangeReverseINS_9allocatorINS_6vectorI4Vec2NS2_IS4_EEEEEEPS6_EEEC2B8ue170006ES9_, symObjAddr: 0x7B94, symBinAddr: 0x10000B2DC, symSize: 0x30 }
  - { offsetInCU: 0x14D11, offset: 0x14D64, size: 0x8, addend: 0x0, symName: __ZNSt3__129_AllocatorDestroyRangeReverseINS_9allocatorINS_6vectorI4Vec2NS1_IS3_EEEEEEPS5_EC2B8ue170006ERS6_RS7_SA_, symObjAddr: 0x7BC4, symBinAddr: 0x10000B30C, symSize: 0x38 }
  - { offsetInCU: 0x14D67, offset: 0x14DBA, size: 0x8, addend: 0x0, symName: __ZNSt3__19allocatorINS_6vectorI4Vec2NS0_IS2_EEEEE9constructB8ue170006IS4_JRS4_EEEvPT_DpOT0_, symObjAddr: 0x7BFC, symBinAddr: 0x10000B344, symSize: 0x30 }
  - { offsetInCU: 0x14DBB, offset: 0x14E0E, size: 0x8, addend: 0x0, symName: __ZNSt3__128__exception_guard_exceptionsINS_29_AllocatorDestroyRangeReverseINS_9allocatorINS_6vectorI4Vec2NS2_IS4_EEEEEEPS6_EEED2B8ue170006Ev, symObjAddr: 0x7C2C, symBinAddr: 0x10000B374, symSize: 0x50 }
  - { offsetInCU: 0x14DE4, offset: 0x14E37, size: 0x8, addend: 0x0, symName: __ZNKSt3__129_AllocatorDestroyRangeReverseINS_9allocatorINS_6vectorI4Vec2NS1_IS3_EEEEEEPS5_EclB8ue170006Ev, symObjAddr: 0x7C7C, symBinAddr: 0x10000B3C4, symSize: 0x68 }
  - { offsetInCU: 0x14E08, offset: 0x14E5B, size: 0x8, addend: 0x0, symName: __ZNSt3__116reverse_iteratorIPNS_6vectorI4Vec2NS_9allocatorIS2_EEEEEC1B8ue170006ES6_, symObjAddr: 0x7D54, symBinAddr: 0x10000B49C, symSize: 0x34 }
  - { offsetInCU: 0x14E3F, offset: 0x14E92, size: 0x8, addend: 0x0, symName: __ZNSt3__116reverse_iteratorIPNS_6vectorI4Vec2NS_9allocatorIS2_EEEEEppB8ue170006Ev, symObjAddr: 0x7DF4, symBinAddr: 0x10000B53C, symSize: 0x20 }
  - { offsetInCU: 0x14E64, offset: 0x14EB7, size: 0x8, addend: 0x0, symName: __ZNKSt3__116reverse_iteratorIPNS_6vectorI4Vec2NS_9allocatorIS2_EEEEE4baseB8ue170006Ev, symObjAddr: 0x7E14, symBinAddr: 0x10000B55C, symSize: 0x18 }
  - { offsetInCU: 0x14E8E, offset: 0x14EE1, size: 0x8, addend: 0x0, symName: __ZNSt3__119__to_address_helperINS_16reverse_iteratorIPNS_6vectorI4Vec2NS_9allocatorIS3_EEEEEEvE6__callB8ue170006ERKS8_, symObjAddr: 0x7E2C, symBinAddr: 0x10000B574, symSize: 0x38 }
  - { offsetInCU: 0x14EB1, offset: 0x14F04, size: 0x8, addend: 0x0, symName: __ZNKSt3__116reverse_iteratorIPNS_6vectorI4Vec2NS_9allocatorIS2_EEEEEptB8ue170006Ev, symObjAddr: 0x7E64, symBinAddr: 0x10000B5AC, symSize: 0x24 }
  - { offsetInCU: 0x14ED6, offset: 0x14F29, size: 0x8, addend: 0x0, symName: __ZNKSt3__116reverse_iteratorIPNS_6vectorI4Vec2NS_9allocatorIS2_EEEEEdeB8ue170006Ev, symObjAddr: 0x7E88, symBinAddr: 0x10000B5D0, symSize: 0x28 }
  - { offsetInCU: 0x14F09, offset: 0x14F5C, size: 0x8, addend: 0x0, symName: __ZNSt3__116reverse_iteratorIPNS_6vectorI4Vec2NS_9allocatorIS2_EEEEEC2B8ue170006ES6_, symObjAddr: 0x7EB0, symBinAddr: 0x10000B5F8, symSize: 0x28 }
  - { offsetInCU: 0x14F40, offset: 0x14F93, size: 0x8, addend: 0x0, symName: __ZNSt3__118__unwrap_iter_implIPNS_6vectorI4Vec2NS_9allocatorIS2_EEEELb1EE8__unwrapB8ue170006ES6_, symObjAddr: 0x7ED8, symBinAddr: 0x10000B620, symSize: 0x24 }
  - { offsetInCU: 0x14F63, offset: 0x14FB6, size: 0x8, addend: 0x0, symName: __ZNSt3__118__unwrap_iter_implIPNS_6vectorI4Vec2NS_9allocatorIS2_EEEELb1EE8__rewrapB8ue170006ES6_S6_, symObjAddr: 0x7EFC, symBinAddr: 0x10000B644, symSize: 0x58 }
  - { offsetInCU: 0x14F9E, offset: 0x14FF1, size: 0x8, addend: 0x0, symName: __ZNKSt3__111__copy_loopINS_17_ClassicAlgPolicyEEclB8ue170006IPNS_6vectorI4Vec2NS_9allocatorIS5_EEEES9_S9_EENS_4pairIT_T1_EESB_T0_SC_, symObjAddr: 0x804C, symBinAddr: 0x10000B794, symSize: 0x88 }
  - { offsetInCU: 0x15007, offset: 0x1505A, size: 0x8, addend: 0x0, symName: __ZNSt3__16vectorI4Vec2NS_9allocatorIS1_EEEaSB8ue170006ERKS4_, symObjAddr: 0x8100, symBinAddr: 0x10000B848, symSize: 0x68 }
  - { offsetInCU: 0x1503D, offset: 0x15090, size: 0x8, addend: 0x0, symName: __ZNSt3__16vectorI4Vec2NS_9allocatorIS1_EEE19__copy_assign_allocB8ue170006ERKS4_, symObjAddr: 0x8168, symBinAddr: 0x10000B8B0, symSize: 0x2C }
  - { offsetInCU: 0x15070, offset: 0x150C3, size: 0x8, addend: 0x0, symName: __ZNSt3__16vectorI4Vec2NS_9allocatorIS1_EEE6assignIPS1_Li0EEEvT_S7_, symObjAddr: 0x8194, symBinAddr: 0x10000B8DC, symSize: 0x5C }
  - { offsetInCU: 0x150C4, offset: 0x15117, size: 0x8, addend: 0x0, symName: __ZNSt3__16vectorI4Vec2NS_9allocatorIS1_EEE19__copy_assign_allocB8ue170006ERKS4_NS_17integral_constantIbLb0EEE, symObjAddr: 0x81F0, symBinAddr: 0x10000B938, symSize: 0x14 }
  - { offsetInCU: 0x150FE, offset: 0x15151, size: 0x8, addend: 0x0, symName: __ZNSt3__16vectorI4Vec2NS_9allocatorIS1_EEE18__assign_with_sizeB8ue170006IPS1_S6_EEvT_T0_l, symObjAddr: 0x8204, symBinAddr: 0x10000B94C, symSize: 0x164 }
  - { offsetInCU: 0x151AD, offset: 0x15200, size: 0x8, addend: 0x0, symName: __ZNSt3__16vectorI4Vec2NS_9allocatorIS1_EEE17__destruct_at_endB8ue170006EPS1_, symObjAddr: 0x83C8, symBinAddr: 0x10000BB10, symSize: 0x4C }
  - { offsetInCU: 0x151EF, offset: 0x15242, size: 0x8, addend: 0x0, symName: __ZNSt3__16vectorI4Vec2NS_9allocatorIS1_EEE13__vdeallocateEv, symObjAddr: 0x8414, symBinAddr: 0x10000BB5C, symSize: 0x94 }
  - { offsetInCU: 0x15215, offset: 0x15268, size: 0x8, addend: 0x0, symName: __ZNKSt3__16vectorI4Vec2NS_9allocatorIS1_EEE11__recommendB8ue170006Em, symObjAddr: 0x84A8, symBinAddr: 0x10000BBF0, symSize: 0xB4 }
  - { offsetInCU: 0x15269, offset: 0x152BC, size: 0x8, addend: 0x0, symName: __ZNKSt3__16vectorI4Vec2NS_9allocatorIS1_EEE17__annotate_shrinkB8ue170006Em, symObjAddr: 0x85BC, symBinAddr: 0x10000BD04, symSize: 0xB4 }
  - { offsetInCU: 0x1529D, offset: 0x152F0, size: 0x8, addend: 0x0, symName: __ZNSt3__16vectorI4Vec2NS_9allocatorIS1_EEE5clearB8ue170006Ev, symObjAddr: 0x8670, symBinAddr: 0x10000BDB8, symSize: 0x44 }
  - { offsetInCU: 0x152D1, offset: 0x15324, size: 0x8, addend: 0x0, symName: __ZNSt3__16vectorINS0_IfNS_9allocatorIfEEEENS1_IS3_EEE19__copy_assign_allocB8ue170006ERKS5_, symObjAddr: 0x8784, symBinAddr: 0x10000BECC, symSize: 0x2C }
  - { offsetInCU: 0x15304, offset: 0x15357, size: 0x8, addend: 0x0, symName: __ZNSt3__16vectorINS0_IfNS_9allocatorIfEEEENS1_IS3_EEE6assignIPS3_Li0EEEvT_S8_, symObjAddr: 0x87B0, symBinAddr: 0x10000BEF8, symSize: 0x5C }
  - { offsetInCU: 0x15358, offset: 0x153AB, size: 0x8, addend: 0x0, symName: __ZNSt3__16vectorINS0_IfNS_9allocatorIfEEEENS1_IS3_EEE19__copy_assign_allocB8ue170006ERKS5_NS_17integral_constantIbLb0EEE, symObjAddr: 0x880C, symBinAddr: 0x10000BF54, symSize: 0x14 }
  - { offsetInCU: 0x15392, offset: 0x153E5, size: 0x8, addend: 0x0, symName: __ZNSt3__16vectorINS0_IfNS_9allocatorIfEEEENS1_IS3_EEE18__assign_with_sizeB8ue170006IPS3_S7_EEvT_T0_l, symObjAddr: 0x8820, symBinAddr: 0x10000BF68, symSize: 0x164 }
  - { offsetInCU: 0x15440, offset: 0x15493, size: 0x8, addend: 0x0, symName: __ZNSt3__16vectorINS0_IfNS_9allocatorIfEEEENS1_IS3_EEE18__construct_at_endIPS3_S7_EEvT_T0_m, symObjAddr: 0x8A24, symBinAddr: 0x10000C16C, symSize: 0x8C }
  - { offsetInCU: 0x154B5, offset: 0x15508, size: 0x8, addend: 0x0, symName: __ZNSt3__16vectorINS0_IfNS_9allocatorIfEEEENS1_IS3_EEE17__destruct_at_endB8ue170006EPS3_, symObjAddr: 0x8AF4, symBinAddr: 0x10000C23C, symSize: 0x4C }
  - { offsetInCU: 0x154F7, offset: 0x1554A, size: 0x8, addend: 0x0, symName: __ZNKSt3__16vectorINS0_IfNS_9allocatorIfEEEENS1_IS3_EEE11__recommendB8ue170006Em, symObjAddr: 0x8B40, symBinAddr: 0x10000C288, symSize: 0xB4 }
  - { offsetInCU: 0x15568, offset: 0x155BB, size: 0x8, addend: 0x0, symName: __ZNSt3__14pairIPNS_6vectorIfNS_9allocatorIfEEEES5_EC1B8ue170006IS5_S5_LPv0EEEOT_OT0_, symObjAddr: 0x8EC8, symBinAddr: 0x10000C610, symSize: 0x3C }
  - { offsetInCU: 0x155C5, offset: 0x15618, size: 0x8, addend: 0x0, symName: __ZNSt3__14pairIPNS_6vectorIfNS_9allocatorIfEEEES5_EC2B8ue170006IS5_S5_LPv0EEEOT_OT0_, symObjAddr: 0x8F04, symBinAddr: 0x10000C64C, symSize: 0x34 }
  - { offsetInCU: 0x15621, offset: 0x15674, size: 0x8, addend: 0x0, symName: __ZNSt3__129_AllocatorDestroyRangeReverseINS_9allocatorINS_6vectorIfNS1_IfEEEEEEPS4_EC1B8ue170006ERS5_RS6_S9_, symObjAddr: 0x8F84, symBinAddr: 0x10000C6CC, symSize: 0x44 }
  - { offsetInCU: 0x15677, offset: 0x156CA, size: 0x8, addend: 0x0, symName: __ZNSt3__116allocator_traitsINS_9allocatorINS_6vectorIfNS1_IfEEEEEEE9constructB8ue170006IS4_JRS4_EvEEvRS5_PT_DpOT0_, symObjAddr: 0x8FC8, symBinAddr: 0x10000C710, symSize: 0x34 }
  - { offsetInCU: 0x156CE, offset: 0x15721, size: 0x8, addend: 0x0, symName: __ZNSt3__128__exception_guard_exceptionsINS_29_AllocatorDestroyRangeReverseINS_9allocatorINS_6vectorIfNS2_IfEEEEEEPS5_EEE10__completeB8ue170006Ev, symObjAddr: 0x8FFC, symBinAddr: 0x10000C744, symSize: 0x1C }
  - { offsetInCU: 0x156F2, offset: 0x15745, size: 0x8, addend: 0x0, symName: __ZNSt3__128__exception_guard_exceptionsINS_29_AllocatorDestroyRangeReverseINS_9allocatorINS_6vectorIfNS2_IfEEEEEEPS5_EEED1B8ue170006Ev, symObjAddr: 0x9018, symBinAddr: 0x10000C760, symSize: 0x2C }
  - { offsetInCU: 0x1571A, offset: 0x1576D, size: 0x8, addend: 0x0, symName: __ZNSt3__128__exception_guard_exceptionsINS_29_AllocatorDestroyRangeReverseINS_9allocatorINS_6vectorIfNS2_IfEEEEEEPS5_EEEC1B8ue170006ES8_, symObjAddr: 0x9044, symBinAddr: 0x10000C78C, symSize: 0x34 }
  - { offsetInCU: 0x15752, offset: 0x157A5, size: 0x8, addend: 0x0, symName: __ZNSt3__128__exception_guard_exceptionsINS_29_AllocatorDestroyRangeReverseINS_9allocatorINS_6vectorIfNS2_IfEEEEEEPS5_EEEC2B8ue170006ES8_, symObjAddr: 0x9078, symBinAddr: 0x10000C7C0, symSize: 0x30 }
  - { offsetInCU: 0x1578A, offset: 0x157DD, size: 0x8, addend: 0x0, symName: __ZNSt3__129_AllocatorDestroyRangeReverseINS_9allocatorINS_6vectorIfNS1_IfEEEEEEPS4_EC2B8ue170006ERS5_RS6_S9_, symObjAddr: 0x90A8, symBinAddr: 0x10000C7F0, symSize: 0x38 }
  - { offsetInCU: 0x157E0, offset: 0x15833, size: 0x8, addend: 0x0, symName: __ZNSt3__19allocatorINS_6vectorIfNS0_IfEEEEE9constructB8ue170006IS3_JRS3_EEEvPT_DpOT0_, symObjAddr: 0x90E0, symBinAddr: 0x10000C828, symSize: 0x30 }
  - { offsetInCU: 0x15834, offset: 0x15887, size: 0x8, addend: 0x0, symName: __ZNSt3__128__exception_guard_exceptionsINS_29_AllocatorDestroyRangeReverseINS_9allocatorINS_6vectorIfNS2_IfEEEEEEPS5_EEED2B8ue170006Ev, symObjAddr: 0x9110, symBinAddr: 0x10000C858, symSize: 0x50 }
  - { offsetInCU: 0x1585D, offset: 0x158B0, size: 0x8, addend: 0x0, symName: __ZNKSt3__129_AllocatorDestroyRangeReverseINS_9allocatorINS_6vectorIfNS1_IfEEEEEEPS4_EclB8ue170006Ev, symObjAddr: 0x9160, symBinAddr: 0x10000C8A8, symSize: 0x68 }
  - { offsetInCU: 0x15881, offset: 0x158D4, size: 0x8, addend: 0x0, symName: __ZNSt3__116reverse_iteratorIPNS_6vectorIfNS_9allocatorIfEEEEEC1B8ue170006ES5_, symObjAddr: 0x9238, symBinAddr: 0x10000C980, symSize: 0x34 }
  - { offsetInCU: 0x158B8, offset: 0x1590B, size: 0x8, addend: 0x0, symName: __ZNSt3__116reverse_iteratorIPNS_6vectorIfNS_9allocatorIfEEEEEppB8ue170006Ev, symObjAddr: 0x92D8, symBinAddr: 0x10000CA20, symSize: 0x20 }
  - { offsetInCU: 0x158DD, offset: 0x15930, size: 0x8, addend: 0x0, symName: __ZNKSt3__116reverse_iteratorIPNS_6vectorIfNS_9allocatorIfEEEEE4baseB8ue170006Ev, symObjAddr: 0x92F8, symBinAddr: 0x10000CA40, symSize: 0x18 }
  - { offsetInCU: 0x15907, offset: 0x1595A, size: 0x8, addend: 0x0, symName: __ZNSt3__119__to_address_helperINS_16reverse_iteratorIPNS_6vectorIfNS_9allocatorIfEEEEEEvE6__callB8ue170006ERKS7_, symObjAddr: 0x9310, symBinAddr: 0x10000CA58, symSize: 0x38 }
  - { offsetInCU: 0x1592A, offset: 0x1597D, size: 0x8, addend: 0x0, symName: __ZNKSt3__116reverse_iteratorIPNS_6vectorIfNS_9allocatorIfEEEEEptB8ue170006Ev, symObjAddr: 0x9348, symBinAddr: 0x10000CA90, symSize: 0x24 }
  - { offsetInCU: 0x1594F, offset: 0x159A2, size: 0x8, addend: 0x0, symName: __ZNKSt3__116reverse_iteratorIPNS_6vectorIfNS_9allocatorIfEEEEEdeB8ue170006Ev, symObjAddr: 0x936C, symBinAddr: 0x10000CAB4, symSize: 0x28 }
  - { offsetInCU: 0x15982, offset: 0x159D5, size: 0x8, addend: 0x0, symName: __ZNSt3__116reverse_iteratorIPNS_6vectorIfNS_9allocatorIfEEEEEC2B8ue170006ES5_, symObjAddr: 0x9394, symBinAddr: 0x10000CADC, symSize: 0x28 }
  - { offsetInCU: 0x159B9, offset: 0x15A0C, size: 0x8, addend: 0x0, symName: __ZNSt3__118__unwrap_iter_implIPNS_6vectorIfNS_9allocatorIfEEEELb1EE8__unwrapB8ue170006ES5_, symObjAddr: 0x93BC, symBinAddr: 0x10000CB04, symSize: 0x24 }
  - { offsetInCU: 0x159DC, offset: 0x15A2F, size: 0x8, addend: 0x0, symName: __ZNSt3__118__unwrap_iter_implIPNS_6vectorIfNS_9allocatorIfEEEELb1EE8__rewrapB8ue170006ES5_S5_, symObjAddr: 0x93E0, symBinAddr: 0x10000CB28, symSize: 0x58 }
  - { offsetInCU: 0x15A0D, offset: 0x15A60, size: 0x8, addend: 0x0, symName: __ZNKSt3__111__copy_loopINS_17_ClassicAlgPolicyEEclB8ue170006IPNS_6vectorIfNS_9allocatorIfEEEES8_S8_EENS_4pairIT_T1_EESA_T0_SB_, symObjAddr: 0x9530, symBinAddr: 0x10000CC78, symSize: 0x88 }
  - { offsetInCU: 0x15A76, offset: 0x15AC9, size: 0x8, addend: 0x0, symName: __ZNSt3__16vectorIfNS_9allocatorIfEEEaSB8ue170006ERKS3_, symObjAddr: 0x95E4, symBinAddr: 0x10000CD2C, symSize: 0x68 }
  - { offsetInCU: 0x15AAC, offset: 0x15AFF, size: 0x8, addend: 0x0, symName: __ZNSt3__16vectorIfNS_9allocatorIfEEE19__copy_assign_allocB8ue170006ERKS3_, symObjAddr: 0x964C, symBinAddr: 0x10000CD94, symSize: 0x2C }
  - { offsetInCU: 0x15ADF, offset: 0x15B32, size: 0x8, addend: 0x0, symName: __ZNSt3__16vectorIfNS_9allocatorIfEEE6assignIPfLi0EEEvT_S6_, symObjAddr: 0x9678, symBinAddr: 0x10000CDC0, symSize: 0x5C }
  - { offsetInCU: 0x15B33, offset: 0x15B86, size: 0x8, addend: 0x0, symName: __ZNSt3__16vectorIfNS_9allocatorIfEEE19__copy_assign_allocB8ue170006ERKS3_NS_17integral_constantIbLb0EEE, symObjAddr: 0x96D4, symBinAddr: 0x10000CE1C, symSize: 0x14 }
  - { offsetInCU: 0x15B6D, offset: 0x15BC0, size: 0x8, addend: 0x0, symName: __ZNSt3__16vectorIfNS_9allocatorIfEEE18__assign_with_sizeB8ue170006IPfS5_EEvT_T0_l, symObjAddr: 0x96E8, symBinAddr: 0x10000CE30, symSize: 0x164 }
  - { offsetInCU: 0x15C1C, offset: 0x15C6F, size: 0x8, addend: 0x0, symName: __ZNSt3__16vectorIfNS_9allocatorIfEEE17__destruct_at_endB8ue170006EPf, symObjAddr: 0x98AC, symBinAddr: 0x10000CFF4, symSize: 0x4C }
  - { offsetInCU: 0x15C5E, offset: 0x15CB1, size: 0x8, addend: 0x0, symName: __ZNSt3__16vectorIfNS_9allocatorIfEEE13__vdeallocateEv, symObjAddr: 0x98F8, symBinAddr: 0x10000D040, symSize: 0x94 }
  - { offsetInCU: 0x15C84, offset: 0x15CD7, size: 0x8, addend: 0x0, symName: __ZNKSt3__16vectorIfNS_9allocatorIfEEE11__recommendB8ue170006Em, symObjAddr: 0x998C, symBinAddr: 0x10000D0D4, symSize: 0xB4 }
  - { offsetInCU: 0x15CD8, offset: 0x15D2B, size: 0x8, addend: 0x0, symName: __ZNKSt3__16vectorIfNS_9allocatorIfEEE17__annotate_shrinkB8ue170006Em, symObjAddr: 0x9AA0, symBinAddr: 0x10000D1E8, symSize: 0xB4 }
  - { offsetInCU: 0x15D0C, offset: 0x15D5F, size: 0x8, addend: 0x0, symName: __ZNSt3__16vectorIfNS_9allocatorIfEEE5clearB8ue170006Ev, symObjAddr: 0x9B54, symBinAddr: 0x10000D29C, symSize: 0x44 }
  - { offsetInCU: 0x15D3F, offset: 0x15D92, size: 0x8, addend: 0x0, symName: __ZNSt3__16vectorI8ParticleNS_9allocatorIS1_EEEC2B8ue170006Ev, symObjAddr: 0x9BE8, symBinAddr: 0x10000D330, symSize: 0x4C }
  - { offsetInCU: 0x15D67, offset: 0x15DBA, size: 0x8, addend: 0x0, symName: __ZNSt3__117__compressed_pairIP8ParticleNS_9allocatorIS1_EEEC1B8ue170006IDnNS_18__default_init_tagEEEOT_OT0_, symObjAddr: 0x9C34, symBinAddr: 0x10000D37C, symSize: 0x3C }
  - { offsetInCU: 0x15DBD, offset: 0x15E10, size: 0x8, addend: 0x0, symName: __ZNSt3__117__compressed_pairIP8ParticleNS_9allocatorIS1_EEEC2B8ue170006IDnNS_18__default_init_tagEEEOT_OT0_, symObjAddr: 0x9C70, symBinAddr: 0x10000D3B8, symSize: 0x40 }
  - { offsetInCU: 0x15E14, offset: 0x15E67, size: 0x8, addend: 0x0, symName: __ZNSt3__122__compressed_pair_elemIP8ParticleLi0ELb0EEC2B8ue170006IDnvEEOT_, symObjAddr: 0x9CB0, symBinAddr: 0x10000D3F8, symSize: 0x1C }
  - { offsetInCU: 0x15E54, offset: 0x15EA7, size: 0x8, addend: 0x0, symName: __ZNSt3__122__compressed_pair_elemINS_9allocatorI8ParticleEELi1ELb1EEC2B8ue170006ENS_18__default_init_tagE, symObjAddr: 0x9CCC, symBinAddr: 0x10000D414, symSize: 0x2C }
  - { offsetInCU: 0x15E86, offset: 0x15ED9, size: 0x8, addend: 0x0, symName: __ZNSt3__19allocatorI8ParticleEC2B8ue170006Ev, symObjAddr: 0x9CF8, symBinAddr: 0x10000D440, symSize: 0x2C }
  - { offsetInCU: 0x15EAF, offset: 0x15F02, size: 0x8, addend: 0x0, symName: __ZNSt3__116__non_trivial_ifILb1ENS_9allocatorI8ParticleEEEC2B8ue170006Ev, symObjAddr: 0x9D24, symBinAddr: 0x10000D46C, symSize: 0x14 }
  - { offsetInCU: 0x15ED7, offset: 0x15F2A, size: 0x8, addend: 0x0, symName: __ZNSt3__16vectorI8ParticleNS_9allocatorIS1_EEED2B8ue170006Ev, symObjAddr: 0x9D38, symBinAddr: 0x10000D480, symSize: 0x44 }
  - { offsetInCU: 0x15EFF, offset: 0x15F52, size: 0x8, addend: 0x0, symName: __ZNSt3__16vectorI8ParticleNS_9allocatorIS1_EEE16__destroy_vectorC1B8ue170006ERS4_, symObjAddr: 0x9D7C, symBinAddr: 0x10000D4C4, symSize: 0x34 }
  - { offsetInCU: 0x15F37, offset: 0x15F8A, size: 0x8, addend: 0x0, symName: __ZNSt3__16vectorI8ParticleNS_9allocatorIS1_EEE16__destroy_vectorclB8ue170006Ev, symObjAddr: 0x9DB0, symBinAddr: 0x10000D4F8, symSize: 0x90 }
  - { offsetInCU: 0x15F5C, offset: 0x15FAF, size: 0x8, addend: 0x0, symName: __ZNSt3__16vectorI8ParticleNS_9allocatorIS1_EEE16__destroy_vectorC2B8ue170006ERS4_, symObjAddr: 0x9E40, symBinAddr: 0x10000D588, symSize: 0x20 }
  - { offsetInCU: 0x15F94, offset: 0x15FE7, size: 0x8, addend: 0x0, symName: __ZNSt3__16vectorI8ParticleNS_9allocatorIS1_EEE7__clearB8ue170006Ev, symObjAddr: 0x9E60, symBinAddr: 0x10000D5A8, symSize: 0x28 }
  - { offsetInCU: 0x15FB9, offset: 0x1600C, size: 0x8, addend: 0x0, symName: __ZNKSt3__16vectorI8ParticleNS_9allocatorIS1_EEE17__annotate_deleteB8ue170006Ev, symObjAddr: 0x9E88, symBinAddr: 0x10000D5D0, symSize: 0xB8 }
  - { offsetInCU: 0x15FDE, offset: 0x16031, size: 0x8, addend: 0x0, symName: __ZNSt3__116allocator_traitsINS_9allocatorI8ParticleEEE10deallocateB8ue170006ERS3_PS2_m, symObjAddr: 0x9F40, symBinAddr: 0x10000D688, symSize: 0x34 }
  - { offsetInCU: 0x16020, offset: 0x16073, size: 0x8, addend: 0x0, symName: __ZNSt3__16vectorI8ParticleNS_9allocatorIS1_EEE7__allocB8ue170006Ev, symObjAddr: 0x9F74, symBinAddr: 0x10000D6BC, symSize: 0x28 }
  - { offsetInCU: 0x16045, offset: 0x16098, size: 0x8, addend: 0x0, symName: __ZNKSt3__16vectorI8ParticleNS_9allocatorIS1_EEE8capacityB8ue170006Ev, symObjAddr: 0x9F9C, symBinAddr: 0x10000D6E4, symSize: 0x40 }
  - { offsetInCU: 0x1606A, offset: 0x160BD, size: 0x8, addend: 0x0, symName: __ZNSt3__16vectorI8ParticleNS_9allocatorIS1_EEE22__base_destruct_at_endB8ue170006EPS1_, symObjAddr: 0x9FDC, symBinAddr: 0x10000D724, symSize: 0x8C }
  - { offsetInCU: 0x160AD, offset: 0x16100, size: 0x8, addend: 0x0, symName: __ZNSt3__116allocator_traitsINS_9allocatorI8ParticleEEE7destroyB8ue170006IS2_vEEvRS3_PT_, symObjAddr: 0xA068, symBinAddr: 0x10000D7B0, symSize: 0x2C }
  - { offsetInCU: 0x160EA, offset: 0x1613D, size: 0x8, addend: 0x0, symName: __ZNSt3__19allocatorI8ParticleE7destroyB8ue170006EPS1_, symObjAddr: 0xA0A8, symBinAddr: 0x10000D7F0, symSize: 0x14 }
  - { offsetInCU: 0x1611D, offset: 0x16170, size: 0x8, addend: 0x0, symName: __ZNKSt3__16vectorI8ParticleNS_9allocatorIS1_EEE31__annotate_contiguous_containerB8ue170006EPKvS6_S6_S6_, symObjAddr: 0xA0BC, symBinAddr: 0x10000D804, symSize: 0x20 }
  - { offsetInCU: 0x1616E, offset: 0x161C1, size: 0x8, addend: 0x0, symName: __ZNKSt3__16vectorI8ParticleNS_9allocatorIS1_EEE4dataB8ue170006Ev, symObjAddr: 0xA0DC, symBinAddr: 0x10000D824, symSize: 0x28 }
  - { offsetInCU: 0x16193, offset: 0x161E6, size: 0x8, addend: 0x0, symName: __ZNKSt3__16vectorI8ParticleNS_9allocatorIS1_EEE4sizeB8ue170006Ev, symObjAddr: 0xA104, symBinAddr: 0x10000D84C, symSize: 0x28 }
  - { offsetInCU: 0x161B8, offset: 0x1620B, size: 0x8, addend: 0x0, symName: __ZNSt3__19allocatorI8ParticleE10deallocateB8ue170006EPS1_m, symObjAddr: 0xA12C, symBinAddr: 0x10000D874, symSize: 0x40 }
  - { offsetInCU: 0x161F9, offset: 0x1624C, size: 0x8, addend: 0x0, symName: __ZNSt3__117__compressed_pairIP8ParticleNS_9allocatorIS1_EEE6secondB8ue170006Ev, symObjAddr: 0xA16C, symBinAddr: 0x10000D8B4, symSize: 0x24 }
  - { offsetInCU: 0x1621E, offset: 0x16271, size: 0x8, addend: 0x0, symName: __ZNSt3__122__compressed_pair_elemINS_9allocatorI8ParticleEELi1ELb1EE5__getB8ue170006Ev, symObjAddr: 0xA190, symBinAddr: 0x10000D8D8, symSize: 0x14 }
  - { offsetInCU: 0x16243, offset: 0x16296, size: 0x8, addend: 0x0, symName: __ZNKSt3__16vectorI8ParticleNS_9allocatorIS1_EEE9__end_capB8ue170006Ev, symObjAddr: 0xA1A4, symBinAddr: 0x10000D8EC, symSize: 0x28 }
  - { offsetInCU: 0x16268, offset: 0x162BB, size: 0x8, addend: 0x0, symName: __ZNKSt3__117__compressed_pairIP8ParticleNS_9allocatorIS1_EEE5firstB8ue170006Ev, symObjAddr: 0xA1CC, symBinAddr: 0x10000D914, symSize: 0x24 }
  - { offsetInCU: 0x1628D, offset: 0x162E0, size: 0x8, addend: 0x0, symName: __ZNKSt3__122__compressed_pair_elemIP8ParticleLi0ELb0EE5__getB8ue170006Ev, symObjAddr: 0xA1F0, symBinAddr: 0x10000D938, symSize: 0x14 }
  - { offsetInCU: 0x162B2, offset: 0x16305, size: 0x8, addend: 0x0, symName: __ZNKSt3__16vectorI8ParticleNS_9allocatorIS1_EEE17__annotate_shrinkB8ue170006Em, symObjAddr: 0xA204, symBinAddr: 0x10000D94C, symSize: 0xB4 }
  - { offsetInCU: 0x162E6, offset: 0x16339, size: 0x8, addend: 0x0, symName: __ZNSt3__16vectorI8ParticleNS_9allocatorIS1_EEE9__end_capB8ue170006Ev, symObjAddr: 0xA2B8, symBinAddr: 0x10000DA00, symSize: 0x28 }
  - { offsetInCU: 0x16310, offset: 0x16363, size: 0x8, addend: 0x0, symName: __ZNSt3__16vectorI8ParticleNS_9allocatorIS1_EEE22__construct_one_at_endB8ue170006IJS1_EEEvDpOT_, symObjAddr: 0xA2E0, symBinAddr: 0x10000DA28, symSize: 0x90 }
  - { offsetInCU: 0x1635D, offset: 0x163B0, size: 0x8, addend: 0x0, symName: __ZNSt3__16vectorI8ParticleNS_9allocatorIS1_EEE21__push_back_slow_pathIS1_EEvOT_, symObjAddr: 0xA370, symBinAddr: 0x10000DAB8, symSize: 0xD8 }
  - { offsetInCU: 0x163BA, offset: 0x1640D, size: 0x8, addend: 0x0, symName: __ZNSt3__117__compressed_pairIP8ParticleNS_9allocatorIS1_EEE5firstB8ue170006Ev, symObjAddr: 0xA448, symBinAddr: 0x10000DB90, symSize: 0x24 }
  - { offsetInCU: 0x163DF, offset: 0x16432, size: 0x8, addend: 0x0, symName: __ZNSt3__122__compressed_pair_elemIP8ParticleLi0ELb0EE5__getB8ue170006Ev, symObjAddr: 0xA46C, symBinAddr: 0x10000DBB4, symSize: 0x14 }
  - { offsetInCU: 0x1641C, offset: 0x1646F, size: 0x8, addend: 0x0, symName: __ZNSt3__16vectorI8ParticleNS_9allocatorIS1_EEE21_ConstructTransactionC1B8ue170006ERS4_m, symObjAddr: 0xA480, symBinAddr: 0x10000DBC8, symSize: 0x3C }
  - { offsetInCU: 0x16463, offset: 0x164B6, size: 0x8, addend: 0x0, symName: __ZNSt3__116allocator_traitsINS_9allocatorI8ParticleEEE9constructB8ue170006IS2_JS2_EvEEvRS3_PT_DpOT0_, symObjAddr: 0xA4BC, symBinAddr: 0x10000DC04, symSize: 0x34 }
  - { offsetInCU: 0x164B9, offset: 0x1650C, size: 0x8, addend: 0x0, symName: __ZNSt3__16vectorI8ParticleNS_9allocatorIS1_EEE21_ConstructTransactionD1B8ue170006Ev, symObjAddr: 0xA4F0, symBinAddr: 0x10000DC38, symSize: 0x2C }
  - { offsetInCU: 0x164E2, offset: 0x16535, size: 0x8, addend: 0x0, symName: __ZNSt3__16vectorI8ParticleNS_9allocatorIS1_EEE21_ConstructTransactionC2B8ue170006ERS4_m, symObjAddr: 0xA51C, symBinAddr: 0x10000DC64, symSize: 0x44 }
  - { offsetInCU: 0x16529, offset: 0x1657C, size: 0x8, addend: 0x0, symName: __ZNSt3__19allocatorI8ParticleE9constructB8ue170006IS1_JS1_EEEvPT_DpOT0_, symObjAddr: 0xA560, symBinAddr: 0x10000DCA8, symSize: 0x28 }
  - { offsetInCU: 0x1657E, offset: 0x165D1, size: 0x8, addend: 0x0, symName: __ZNSt3__16vectorI8ParticleNS_9allocatorIS1_EEE21_ConstructTransactionD2B8ue170006Ev, symObjAddr: 0xA588, symBinAddr: 0x10000DCD0, symSize: 0x20 }
  - { offsetInCU: 0x165A6, offset: 0x165F9, size: 0x8, addend: 0x0, symName: __ZNKSt3__16vectorI8ParticleNS_9allocatorIS1_EEE11__recommendB8ue170006Em, symObjAddr: 0xA5A8, symBinAddr: 0x10000DCF0, symSize: 0xB4 }
  - { offsetInCU: 0x165FA, offset: 0x1664D, size: 0x8, addend: 0x0, symName: __ZNSt3__114__split_bufferI8ParticleRNS_9allocatorIS1_EEEC1EmmS4_, symObjAddr: 0xA65C, symBinAddr: 0x10000DDA4, symSize: 0x44 }
  - { offsetInCU: 0x1664F, offset: 0x166A2, size: 0x8, addend: 0x0, symName: __ZNSt3__114__split_bufferI8ParticleRNS_9allocatorIS1_EEED1Ev, symObjAddr: 0xA7B0, symBinAddr: 0x10000DEF8, symSize: 0x2C }
  - { offsetInCU: 0x16679, offset: 0x166CC, size: 0x8, addend: 0x0, symName: __ZNKSt3__16vectorI8ParticleNS_9allocatorIS1_EEE8max_sizeEv, symObjAddr: 0xA7DC, symBinAddr: 0x10000DF24, symSize: 0x60 }
  - { offsetInCU: 0x166A0, offset: 0x166F3, size: 0x8, addend: 0x0, symName: __ZNKSt3__16vectorI8ParticleNS_9allocatorIS1_EEE20__throw_length_errorB8ue170006Ev, symObjAddr: 0xA83C, symBinAddr: 0x10000DF84, symSize: 0x1C }
  - { offsetInCU: 0x166CF, offset: 0x16722, size: 0x8, addend: 0x0, symName: __ZNSt3__116allocator_traitsINS_9allocatorI8ParticleEEE8max_sizeB8ue170006IS3_vEEmRKS3_, symObjAddr: 0xA858, symBinAddr: 0x10000DFA0, symSize: 0x24 }
  - { offsetInCU: 0x166FD, offset: 0x16750, size: 0x8, addend: 0x0, symName: __ZNKSt3__16vectorI8ParticleNS_9allocatorIS1_EEE7__allocB8ue170006Ev, symObjAddr: 0xA87C, symBinAddr: 0x10000DFC4, symSize: 0x28 }
  - { offsetInCU: 0x16722, offset: 0x16775, size: 0x8, addend: 0x0, symName: __ZNKSt3__19allocatorI8ParticleE8max_sizeB8ue170006Ev, symObjAddr: 0xA8A4, symBinAddr: 0x10000DFEC, symSize: 0x14 }
  - { offsetInCU: 0x16747, offset: 0x1679A, size: 0x8, addend: 0x0, symName: __ZNKSt3__117__compressed_pairIP8ParticleNS_9allocatorIS1_EEE6secondB8ue170006Ev, symObjAddr: 0xA8B8, symBinAddr: 0x10000E000, symSize: 0x24 }
  - { offsetInCU: 0x1676C, offset: 0x167BF, size: 0x8, addend: 0x0, symName: __ZNKSt3__122__compressed_pair_elemINS_9allocatorI8ParticleEELi1ELb1EE5__getB8ue170006Ev, symObjAddr: 0xA8DC, symBinAddr: 0x10000E024, symSize: 0x14 }
  - { offsetInCU: 0x16791, offset: 0x167E4, size: 0x8, addend: 0x0, symName: __ZNSt3__114__split_bufferI8ParticleRNS_9allocatorIS1_EEEC2EmmS4_, symObjAddr: 0xA8F0, symBinAddr: 0x10000E038, symSize: 0xD4 }
  - { offsetInCU: 0x16802, offset: 0x16855, size: 0x8, addend: 0x0, symName: __ZNSt3__117__compressed_pairIP8ParticleRNS_9allocatorIS1_EEEC1B8ue170006IDnS5_EEOT_OT0_, symObjAddr: 0xA9C4, symBinAddr: 0x10000E10C, symSize: 0x3C }
  - { offsetInCU: 0x16859, offset: 0x168AC, size: 0x8, addend: 0x0, symName: __ZNSt3__114__split_bufferI8ParticleRNS_9allocatorIS1_EEE7__allocB8ue170006Ev, symObjAddr: 0xAA40, symBinAddr: 0x10000E188, symSize: 0x28 }
  - { offsetInCU: 0x1687E, offset: 0x168D1, size: 0x8, addend: 0x0, symName: __ZNSt3__114__split_bufferI8ParticleRNS_9allocatorIS1_EEE9__end_capB8ue170006Ev, symObjAddr: 0xAA68, symBinAddr: 0x10000E1B0, symSize: 0x28 }
  - { offsetInCU: 0x168A2, offset: 0x168F5, size: 0x8, addend: 0x0, symName: __ZNSt3__117__compressed_pairIP8ParticleRNS_9allocatorIS1_EEEC2B8ue170006IDnS5_EEOT_OT0_, symObjAddr: 0xAA90, symBinAddr: 0x10000E1D8, symSize: 0x48 }
  - { offsetInCU: 0x168F9, offset: 0x1694C, size: 0x8, addend: 0x0, symName: __ZNSt3__122__compressed_pair_elemIRNS_9allocatorI8ParticleEELi1ELb0EEC2B8ue170006IS4_vEEOT_, symObjAddr: 0xAAD8, symBinAddr: 0x10000E220, symSize: 0x20 }
  - { offsetInCU: 0x1693A, offset: 0x1698D, size: 0x8, addend: 0x0, symName: __ZNSt3__19allocatorI8ParticleE8allocateB8ue170006Em, symObjAddr: 0xAAF8, symBinAddr: 0x10000E240, symSize: 0x58 }
  - { offsetInCU: 0x1696D, offset: 0x169C0, size: 0x8, addend: 0x0, symName: __ZNSt3__117__compressed_pairIP8ParticleRNS_9allocatorIS1_EEE6secondB8ue170006Ev, symObjAddr: 0xAB50, symBinAddr: 0x10000E298, symSize: 0x28 }
  - { offsetInCU: 0x16992, offset: 0x169E5, size: 0x8, addend: 0x0, symName: __ZNSt3__122__compressed_pair_elemIRNS_9allocatorI8ParticleEELi1ELb0EE5__getB8ue170006Ev, symObjAddr: 0xAB78, symBinAddr: 0x10000E2C0, symSize: 0x18 }
  - { offsetInCU: 0x169B7, offset: 0x16A0A, size: 0x8, addend: 0x0, symName: __ZNSt3__117__compressed_pairIP8ParticleRNS_9allocatorIS1_EEE5firstB8ue170006Ev, symObjAddr: 0xAB90, symBinAddr: 0x10000E2D8, symSize: 0x24 }
  - { offsetInCU: 0x169DB, offset: 0x16A2E, size: 0x8, addend: 0x0, symName: __ZNSt3__116reverse_iteratorIP8ParticleEC1B8ue170006ES2_, symObjAddr: 0xAC2C, symBinAddr: 0x10000E374, symSize: 0x34 }
  - { offsetInCU: 0x16A12, offset: 0x16A65, size: 0x8, addend: 0x0, symName: __ZNKSt3__116reverse_iteratorIP8ParticleE4baseB8ue170006Ev, symObjAddr: 0xAC60, symBinAddr: 0x10000E3A8, symSize: 0x18 }
  - { offsetInCU: 0x16A37, offset: 0x16A8A, size: 0x8, addend: 0x0, symName: __ZNKSt3__16vectorI8ParticleNS_9allocatorIS1_EEE14__annotate_newB8ue170006Em, symObjAddr: 0xACB4, symBinAddr: 0x10000E3FC, symSize: 0xAC }
  - { offsetInCU: 0x16A8E, offset: 0x16AE1, size: 0x8, addend: 0x0, symName: __ZNKSt3__111__move_loopINS_17_ClassicAlgPolicyEEclB8ue170006INS_16reverse_iteratorIP8ParticleEES7_S7_EENS_4pairIT_T1_EES9_T0_SA_, symObjAddr: 0xB050, symBinAddr: 0x10000E798, symSize: 0xA0 }
  - { offsetInCU: 0x16AF8, offset: 0x16B4B, size: 0x8, addend: 0x0, symName: __ZNSt3__18_IterOpsINS_17_ClassicAlgPolicyEE11__iter_moveB8ue170006IRNS_16reverse_iteratorIP8ParticleEEEENS_9enable_ifIXsr12is_referenceIDTdeclsr3stdE7declvalIRT_EEEEE5valueEDTclsr3stdE4movedeclsr3stdE7declvalISB_EEEEE4typeEOSA_, symObjAddr: 0xB284, symBinAddr: 0x10000E9CC, symSize: 0x28 }
  - { offsetInCU: 0x16B24, offset: 0x16B77, size: 0x8, addend: 0x0, symName: __ZNKSt3__116reverse_iteratorIP8ParticleEdeB8ue170006Ev, symObjAddr: 0xB2AC, symBinAddr: 0x10000E9F4, symSize: 0x28 }
  - { offsetInCU: 0x16B57, offset: 0x16BAA, size: 0x8, addend: 0x0, symName: __ZNSt3__116reverse_iteratorIP8ParticleEppB8ue170006Ev, symObjAddr: 0xB2D4, symBinAddr: 0x10000EA1C, symSize: 0x20 }
  - { offsetInCU: 0x16B7C, offset: 0x16BCF, size: 0x8, addend: 0x0, symName: __ZNSt3__18_IterOpsINS_17_ClassicAlgPolicyEE25__validate_iter_referenceB8ue170006IRNS_16reverse_iteratorIP8ParticleEEEEvv, symObjAddr: 0xB2F4, symBinAddr: 0x10000EA3C, symSize: 0x4 }
  - { offsetInCU: 0x16B9A, offset: 0x16BED, size: 0x8, addend: 0x0, symName: __ZNSt3__118__unwrap_iter_implINS_16reverse_iteratorIP8ParticleEELb0EE8__unwrapB8ue170006ES4_, symObjAddr: 0xB2F8, symBinAddr: 0x10000EA40, symSize: 0x24 }
  - { offsetInCU: 0x16BC1, offset: 0x16C14, size: 0x8, addend: 0x0, symName: __ZNSt3__14pairINS_16reverse_iteratorIP8ParticleEES4_EC1B8ue170006IS4_S4_LPv0EEEOT_OT0_, symObjAddr: 0xB31C, symBinAddr: 0x10000EA64, symSize: 0x3C }
  - { offsetInCU: 0x16C1E, offset: 0x16C71, size: 0x8, addend: 0x0, symName: __ZNSt3__14pairINS_16reverse_iteratorIP8ParticleEES4_EC2B8ue170006IS4_S4_LPv0EEEOT_OT0_, symObjAddr: 0xB358, symBinAddr: 0x10000EAA0, symSize: 0x34 }
  - { offsetInCU: 0x16C7B, offset: 0x16CCE, size: 0x8, addend: 0x0, symName: __ZNSt3__118__unwrap_iter_implINS_16reverse_iteratorIP8ParticleEELb0EE8__rewrapB8ue170006ES4_S4_, symObjAddr: 0xB38C, symBinAddr: 0x10000EAD4, symSize: 0x2C }
  - { offsetInCU: 0x16CA8, offset: 0x16CFB, size: 0x8, addend: 0x0, symName: __ZNSt3__116reverse_iteratorIP8ParticleEC2B8ue170006ES2_, symObjAddr: 0xB3B8, symBinAddr: 0x10000EB00, symSize: 0x28 }
  - { offsetInCU: 0x16CDF, offset: 0x16D32, size: 0x8, addend: 0x0, symName: __ZNSt3__114__split_bufferI8ParticleRNS_9allocatorIS1_EEED2Ev, symObjAddr: 0xB3E0, symBinAddr: 0x10000EB28, symSize: 0x8C }
  - { offsetInCU: 0x16D0A, offset: 0x16D5D, size: 0x8, addend: 0x0, symName: __ZNSt3__114__split_bufferI8ParticleRNS_9allocatorIS1_EEE5clearB8ue170006Ev, symObjAddr: 0xB46C, symBinAddr: 0x10000EBB4, symSize: 0x28 }
  - { offsetInCU: 0x16D2F, offset: 0x16D82, size: 0x8, addend: 0x0, symName: __ZNKSt3__114__split_bufferI8ParticleRNS_9allocatorIS1_EEE8capacityB8ue170006Ev, symObjAddr: 0xB494, symBinAddr: 0x10000EBDC, symSize: 0x40 }
  - { offsetInCU: 0x16D54, offset: 0x16DA7, size: 0x8, addend: 0x0, symName: __ZNSt3__114__split_bufferI8ParticleRNS_9allocatorIS1_EEE17__destruct_at_endB8ue170006EPS1_, symObjAddr: 0xB4D4, symBinAddr: 0x10000EC1C, symSize: 0x2C }
  - { offsetInCU: 0x16D86, offset: 0x16DD9, size: 0x8, addend: 0x0, symName: __ZNSt3__114__split_bufferI8ParticleRNS_9allocatorIS1_EEE17__destruct_at_endB8ue170006EPS1_NS_17integral_constantIbLb0EEE, symObjAddr: 0xB500, symBinAddr: 0x10000EC48, symSize: 0x80 }
  - { offsetInCU: 0x16DC5, offset: 0x16E18, size: 0x8, addend: 0x0, symName: __ZNKSt3__114__split_bufferI8ParticleRNS_9allocatorIS1_EEE9__end_capB8ue170006Ev, symObjAddr: 0xB580, symBinAddr: 0x10000ECC8, symSize: 0x28 }
  - { offsetInCU: 0x16DEA, offset: 0x16E3D, size: 0x8, addend: 0x0, symName: __ZNKSt3__117__compressed_pairIP8ParticleRNS_9allocatorIS1_EEE5firstB8ue170006Ev, symObjAddr: 0xB5A8, symBinAddr: 0x10000ECF0, symSize: 0x24 }
  - { offsetInCU: 0x16E0F, offset: 0x16E62, size: 0x8, addend: 0x0, symName: __ZNSt3__16vectorI8ParticleNS_9allocatorIS1_EEE11__make_iterB8ue170006EPS1_, symObjAddr: 0xB5CC, symBinAddr: 0x10000ED14, symSize: 0x30 }
  - { offsetInCU: 0x16E42, offset: 0x16E95, size: 0x8, addend: 0x0, symName: __ZNSt3__111__wrap_iterIP8ParticleEC1B8ue170006ES2_, symObjAddr: 0xB5FC, symBinAddr: 0x10000ED44, symSize: 0x34 }
  - { offsetInCU: 0x16E79, offset: 0x16ECC, size: 0x8, addend: 0x0, symName: __ZNSt3__111__wrap_iterIP8ParticleEC2B8ue170006ES2_, symObjAddr: 0xB630, symBinAddr: 0x10000ED78, symSize: 0x20 }
  - { offsetInCU: 0x16EB0, offset: 0x16F03, size: 0x8, addend: 0x0, symName: __ZNSt3__16vectorINS0_IfNS_9allocatorIfEEEENS1_IS3_EEEC2ERKS5_, symObjAddr: 0xB650, symBinAddr: 0x10000ED98, symSize: 0x94 }
  - { offsetInCU: 0x16EEA, offset: 0x16F3D, size: 0x8, addend: 0x0, symName: __ZNSt3__116allocator_traitsINS_9allocatorINS_6vectorIfNS1_IfEEEEEEE37select_on_container_copy_constructionB8ue170006IS5_vvEES5_RKS5_, symObjAddr: 0xB6E4, symBinAddr: 0x10000EE2C, symSize: 0x10 }
  - { offsetInCU: 0x16F1D, offset: 0x16F70, size: 0x8, addend: 0x0, symName: __ZNSt3__117__compressed_pairIPNS_6vectorIfNS_9allocatorIfEEEENS2_IS4_EEEC1B8ue170006IDnS6_EEOT_OT0_, symObjAddr: 0xB6F4, symBinAddr: 0x10000EE3C, symSize: 0x3C }
  - { offsetInCU: 0x16F74, offset: 0x16FC7, size: 0x8, addend: 0x0, symName: __ZNSt3__16vectorINS0_IfNS_9allocatorIfEEEENS1_IS3_EEE16__init_with_sizeB8ue170006IPS3_S7_EEvT_T0_m, symObjAddr: 0xB730, symBinAddr: 0x10000EE78, symSize: 0xB8 }
  - { offsetInCU: 0x16FE6, offset: 0x17039, size: 0x8, addend: 0x0, symName: __ZNSt3__117__compressed_pairIPNS_6vectorIfNS_9allocatorIfEEEENS2_IS4_EEEC2B8ue170006IDnS6_EEOT_OT0_, symObjAddr: 0xB7E8, symBinAddr: 0x10000EF30, symSize: 0x44 }
  - { offsetInCU: 0x1703D, offset: 0x17090, size: 0x8, addend: 0x0, symName: __ZNSt3__122__compressed_pair_elemINS_9allocatorINS_6vectorIfNS1_IfEEEEEELi1ELb1EEC2B8ue170006IS5_vEEOT_, symObjAddr: 0xB82C, symBinAddr: 0x10000EF74, symSize: 0x18 }
...
