---
triple:          'arm64-apple-darwin'
binary-path:     apic_demo
relocations:
  - { offset: 0x4C6E0, size: 0x8, addend: 0x0, symName: __ZNSt3__124__put_character_sequenceB8ne180100IcNS_11char_traitsIcEEEERNS_13basic_ostreamIT_T0_EES7_PKS4_m, symObjAddr: 0x76B4, symBinAddr: 0x1000083A4, symSize: 0x164 }
  - { offset: 0x4F741, size: 0x8, addend: 0x0, symName: __ZNSt3__116__pad_and_outputB8ne180100IcNS_11char_traitsIcEEEENS_19ostreambuf_iteratorIT_T0_EES6_PKS4_S8_S8_RNS_8ios_baseES4_, symObjAddr: 0x7818, symBinAddr: 0x100008508, symSize: 0x1A4 }
  - { offset: 0x4FEF4, size: 0x8, addend: 0x0, symName: __ZNSt3__120__throw_length_errorB8ne180100EPKc, symObjAddr: 0x79D0, symBinAddr: 0x1000086C0, symSize: 0x50 }
  - { offset: 0x51D7D, size: 0x8, addend: 0x0, symName: __ZSt28__throw_bad_array_new_lengthB8ne180100v, symObjAddr: 0x7A44, symBinAddr: 0x100008734, symSize: 0x28 }
  - { offset: 0x546E7, size: 0x8, addend: 0x0, symName: __ZN13robertbridson4BLAS10add_scaledEfRKNSt3__16vectorIfNS1_9allocatorIfEEEERS5_, symObjAddr: 0x8AB8, symBinAddr: 0x100009564, symSize: 0x22C }
  - { offset: 0x54BF4, size: 0x8, addend: 0x0, symName: __ZNSt3__16vectorIfNS_9allocatorIfEEE18__assign_with_sizeB8ne180100IPfS5_EEvT_T0_l, symObjAddr: 0x8CE4, symBinAddr: 0x100009790, symSize: 0x144 }
  - { offset: 0x54C9D, size: 0x8, addend: 0x0, symName: __ZN13robertbridson36factor_modified_incomplete_cholesky0IfEEvRKNS_12SparseMatrixIT_EERNS_23SparseColumnLowerFactorIS2_EES2_S2_, symObjAddr: 0x8E28, symBinAddr: 0x1000098D4, symSize: 0x7F8 }
  - { offset: 0x55954, size: 0x8, addend: 0x0, symName: __ZN13robertbridson23SparseColumnLowerFactorIfE6resizeEj, symObjAddr: 0x9620, symBinAddr: 0x10000A0CC, symSize: 0xC4 }
  - { offset: 0x55971, size: 0x8, addend: 0x0, symName: __ZN13robertbridson11solve_lowerIfEEvRKNS_23SparseColumnLowerFactorIT_EERKNSt3__16vectorIS2_NS6_9allocatorIS2_EEEERSA_, symObjAddr: 0x9888, symBinAddr: 0x10000A334, symSize: 0xF4 }
  - { offset: 0x55ACC, size: 0x8, addend: 0x0, symName: __ZNSt3__16vectorIfNS_9allocatorIfEEE6assignEmRKf, symObjAddr: 0x997C, symBinAddr: 0x10000A428, symSize: 0x224 }
  - { offset: 0x59A26, size: 0x8, addend: 0x0, symName: __ZN8FluidSimD2Ev, symObjAddr: 0x0, symBinAddr: 0x100000CF0, symSize: 0x124 }
  - { offset: 0x5A403, size: 0x8, addend: 0x0, symName: __ZN13robertbridson9PCGSolverIfED2Ev, symObjAddr: 0x75D4, symBinAddr: 0x1000082C4, symSize: 0xE0 }
  - { offset: 0x5B298, size: 0x8, addend: 0x0, symName: __ZN8FluidSimD1Ev, symObjAddr: 0x124, symBinAddr: 0x100000E14, symSize: 0x4 }
  - { offset: 0x5B2BB, size: 0x8, addend: 0x0, symName: __ZN8FluidSimD1Ev, symObjAddr: 0x124, symBinAddr: 0x100000E14, symSize: 0x4 }
  - { offset: 0x5B2EF, size: 0x8, addend: 0x0, symName: __ZN8FluidSimD0Ev, symObjAddr: 0x128, symBinAddr: 0x100000E18, symSize: 0x14 }
  - { offset: 0x5B650, size: 0x8, addend: 0x0, symName: __ZN8FluidSim10initializeERKN5Eigen6MatrixIfLi2ELi1ELi0ELi2ELi1EEEfiifbb, symObjAddr: 0x13C, symBinAddr: 0x100000E2C, symSize: 0x498 }
  - { offset: 0x5C0BA, size: 0x8, addend: 0x0, symName: __ZN6Array1IfE7reserveEm, symObjAddr: 0x7A6C, symBinAddr: 0x10000875C, symSize: 0x5C }
  - { offset: 0x5C1DA, size: 0x8, addend: 0x0, symName: __ZN8FluidSim10initializeERKN5Eigen6MatrixIfLi2ELi1ELi0ELi2ELi1EEEfiifbb.cold.1, symObjAddr: 0x9BB4, symBinAddr: 0x10000B170, symSize: 0x24 }
  - { offset: 0x5C2CF, size: 0x8, addend: 0x0, symName: __ZN8FluidSim15update_boundaryEv, symObjAddr: 0x5D4, symBinAddr: 0x1000012C4, symSize: 0x2A0 }
  - { offset: 0x5CF90, size: 0x8, addend: 0x0, symName: __ZN8FluidSim15update_boundaryEv.cold.1, symObjAddr: 0x9DAC, symBinAddr: 0x10000B194, symSize: 0x24 }
  - { offset: 0x5CFE8, size: 0x8, addend: 0x0, symName: __ZNKSt3__16vectorIiNS_9allocatorIiEEE20__throw_length_errorB8ne180100Ev, symObjAddr: 0x7AF8, symBinAddr: 0x1000087E8, symSize: 0x14 }
  - { offset: 0x5D012, size: 0x8, addend: 0x0, symName: __ZNSt3__16vectorIfNS_9allocatorIfEEE8__appendEm, symObjAddr: 0x7B0C, symBinAddr: 0x1000087FC, symSize: 0x1A4 }
  - { offset: 0x5D0AF, size: 0x8, addend: 0x0, symName: __ZN8FluidSim10relaxationEf, symObjAddr: 0x874, symBinAddr: 0x100001564, symSize: 0x840 }
  - { offset: 0x6079A, size: 0x8, addend: 0x0, symName: __ZN8FluidSim10relaxationEf.cold.1, symObjAddr: 0x9DD0, symBinAddr: 0x10000B1B8, symSize: 0x24 }
  - { offset: 0x60C4E, size: 0x8, addend: 0x0, symName: __ZN8FluidSim7advanceEf, symObjAddr: 0x10B4, symBinAddr: 0x100001DA4, symSize: 0x5B4 }
  - { offset: 0x63869, size: 0x8, addend: 0x0, symName: __ZN8FluidSim4tockERKNSt3__112basic_stringIcNS0_11char_traitsIcEENS0_9allocatorIcEEEE, symObjAddr: 0x1668, symBinAddr: 0x100002358, symSize: 0x128 }
  - { offset: 0x63ACA, size: 0x8, addend: 0x0, symName: __ZN8FluidSim14map_p2g_linearEv, symObjAddr: 0x6768, symBinAddr: 0x100007458, symSize: 0x988 }
  - { offset: 0x64A0B, size: 0x8, addend: 0x0, symName: __ZN8FluidSim13save_velocityEv, symObjAddr: 0x1794, symBinAddr: 0x100002484, symSize: 0xD8 }
  - { offset: 0x64B65, size: 0x8, addend: 0x0, symName: __ZN8FluidSim23compute_liquid_distanceEv, symObjAddr: 0x1904, symBinAddr: 0x1000025F4, symSize: 0x6A8 }
  - { offset: 0x6549C, size: 0x8, addend: 0x0, symName: __ZN8FluidSim15compute_weightsEv, symObjAddr: 0x1FAC, symBinAddr: 0x100002C9C, symSize: 0x3E4 }
  - { offset: 0x65A82, size: 0x8, addend: 0x0, symName: __ZN8FluidSim14solve_pressureEf, symObjAddr: 0x2390, symBinAddr: 0x100003080, symSize: 0xF1C }
  - { offset: 0x6723B, size: 0x8, addend: 0x0, symName: __Z11extrapolateR6Array2If6Array1IfEES3_RKS2_S5_RS_IcS0_IcEES7_RKN5Eigen6MatrixIiLi2ELi1ELi0ELi2ELi1EEEi, symObjAddr: 0x32AC, symBinAddr: 0x100003F9C, symSize: 0x9C0 }
  - { offset: 0x67E49, size: 0x8, addend: 0x0, symName: __ZN8FluidSim18constrain_velocityEv, symObjAddr: 0x3C6C, symBinAddr: 0x10000495C, symSize: 0xAB0 }
  - { offset: 0x69F73, size: 0x8, addend: 0x0, symName: __ZN8FluidSim20map_g2p_flip_generalEfff, symObjAddr: 0x471C, symBinAddr: 0x10000540C, symSize: 0x754 }
  - { offset: 0x6BAD3, size: 0x8, addend: 0x0, symName: __ZN8FluidSim7map_p2gEv, symObjAddr: 0x1790, symBinAddr: 0x100002480, symSize: 0x4 }
  - { offset: 0x6BAF6, size: 0x8, addend: 0x0, symName: __ZN8FluidSim7map_p2gEv, symObjAddr: 0x1790, symBinAddr: 0x100002480, symSize: 0x4 }
  - { offset: 0x6BB67, size: 0x8, addend: 0x0, symName: __ZN8FluidSim9add_forceEf, symObjAddr: 0x186C, symBinAddr: 0x10000255C, symSize: 0x98 }
  - { offset: 0x6BBF2, size: 0x8, addend: 0x0, symName: __ZN8FluidSim23compute_liquid_distanceEv, symObjAddr: 0x1904, symBinAddr: 0x1000025F4, symSize: 0x6A8 }
  - { offset: 0x6C4C7, size: 0x8, addend: 0x0, symName: __ZNSt3__16vectorIfNS_9allocatorIfEEE8__appendEm, symObjAddr: 0x7B0C, symBinAddr: 0x1000087FC, symSize: 0x1A4 }
  - { offset: 0x6C93A, size: 0x8, addend: 0x0, symName: __ZN13robertbridson12SparseMatrixIfE6resizeEi, symObjAddr: 0x5374, symBinAddr: 0x100006064, symSize: 0x114 }
  - { offset: 0x6CD51, size: 0x8, addend: 0x0, symName: __ZN13robertbridson12SparseMatrixIfE14add_to_elementEjjf, symObjAddr: 0x80D4, symBinAddr: 0x100008B94, symSize: 0x3A8 }
  - { offset: 0x6D617, size: 0x8, addend: 0x0, symName: __Z6insertIjEvRNSt3__16vectorIT_NS0_9allocatorIS2_EEEEjS2_, symObjAddr: 0x847C, symBinAddr: 0x100008F3C, symSize: 0x1B4 }
  - { offset: 0x6D629, size: 0x8, addend: 0x0, symName: __ZN13robertbridson9PCGSolverIfE5solveERKNS_12SparseMatrixIfEERKNSt3__16vectorIfNS6_9allocatorIfEEEERSA_RfRi, symObjAddr: 0x5488, symBinAddr: 0x100006178, symSize: 0xBE8 }
  - { offset: 0x70100, size: 0x8, addend: 0x0, symName: __ZNK8FluidSim14solid_distanceERKN5Eigen6MatrixIfLi2ELi1ELi0ELi2ELi1EEERKNS_8BoundaryE, symObjAddr: 0x6070, symBinAddr: 0x100006D60, symSize: 0x54 }
  - { offset: 0x723C1, size: 0x8, addend: 0x0, symName: __ZNK8FluidSim11compute_cflEv, symObjAddr: 0x4E70, symBinAddr: 0x100005B60, symSize: 0x40 }
  - { offset: 0x723F7, size: 0x8, addend: 0x0, symName: __ZNK8FluidSim11compute_cflEv, symObjAddr: 0x4E70, symBinAddr: 0x100005B60, symSize: 0x40 }
  - { offset: 0x72433, size: 0x8, addend: 0x0, symName: __ZNK8FluidSim11compute_cflEv, symObjAddr: 0x4E70, symBinAddr: 0x100005B60, symSize: 0x40 }
  - { offset: 0x7261B, size: 0x8, addend: 0x0, symName: __ZN8FluidSim41get_velocity_and_affine_matrix_with_orderERKN5Eigen6MatrixIfLi2ELi1ELi0ELi2ELi1EEEfNS_14VELOCITY_ORDERENS_19INTERPOLATION_ORDEREPNS1_IfLi2ELi2ELi0ELi2ELi2EEE, symObjAddr: 0x4EB0, symBinAddr: 0x100005BA0, symSize: 0x110 }
  - { offset: 0x739DB, size: 0x8, addend: 0x0, symName: __Z24affine_interpolate_valueIfEN5Eigen6MatrixIT_Li2ELi1ELi0ELi2ELi1EEERKS3_RK6Array2IS2_6Array1IS2_EE, symObjAddr: 0x51F8, symBinAddr: 0x100005EE8, symSize: 0x120 }
  - { offset: 0x73C79, size: 0x8, addend: 0x0, symName: __Z15fraction_insideff, symObjAddr: 0x5318, symBinAddr: 0x100006008, symSize: 0x5C }
  - { offset: 0x73C84, size: 0x8, addend: 0x0, symName: __Z17interpolate_valueIffET0_RKN5Eigen6MatrixIT_Li2ELi1ELi0ELi2ELi1EEERK6Array2IS0_6Array1IS0_EE, symObjAddr: 0x50E8, symBinAddr: 0x100005DD8, symSize: 0x110 }
  - { offset: 0x73E9E, size: 0x8, addend: 0x0, symName: __Z24affine_interpolate_valueIfEN5Eigen6MatrixIT_Li2ELi1ELi0ELi2ELi1EEERKS3_RK6Array2IS2_6Array1IS2_EE, symObjAddr: 0x51F8, symBinAddr: 0x100005EE8, symSize: 0x120 }
  - { offset: 0x73EA9, size: 0x8, addend: 0x0, symName: __ZN8FluidSim12get_velocityERKN5Eigen6MatrixIfLi2ELi1ELi0ELi2ELi1EEE, symObjAddr: 0x4FC0, symBinAddr: 0x100005CB0, symSize: 0x84 }
  - { offset: 0x745EF, size: 0x8, addend: 0x0, symName: __ZN8FluidSim17get_affine_matrixERKN5Eigen6MatrixIfLi2ELi1ELi0ELi2ELi1EEE, symObjAddr: 0x5044, symBinAddr: 0x100005D34, symSize: 0xA4 }
  - { offset: 0x7535E, size: 0x8, addend: 0x0, symName: __Z15fraction_insideff, symObjAddr: 0x5318, symBinAddr: 0x100006008, symSize: 0x5C }
  - { offset: 0x75477, size: 0x8, addend: 0x0, symName: __ZNSt3__16vectorINS0_IjNS_9allocatorIjEEEENS1_IS3_EEE8__appendEm, symObjAddr: 0x7CC4, symBinAddr: 0x1000089A0, symSize: 0x1F4 }
  - { offset: 0x7673D, size: 0x8, addend: 0x0, symName: __ZNSt3__16vectorIfNS_9allocatorIfEEE18__assign_with_sizeB8ne180100IPfS5_EEvT_T0_l, symObjAddr: 0x8CE4, symBinAddr: 0x100009790, symSize: 0x144 }
  - { offset: 0x77134, size: 0x8, addend: 0x0, symName: __ZN13robertbridson36factor_modified_incomplete_cholesky0IfEEvRKNS_12SparseMatrixIT_EERNS_23SparseColumnLowerFactorIS2_EES2_S2_, symObjAddr: 0x8E28, symBinAddr: 0x1000098D4, symSize: 0x7F8 }
  - { offset: 0x77158, size: 0x8, addend: 0x0, symName: __ZN13robertbridson17FixedSparseMatrixIfE21construct_from_matrixERKNS_12SparseMatrixIfEE, symObjAddr: 0x87F8, symBinAddr: 0x1000092A4, symSize: 0x2C0 }
  - { offset: 0x7744E, size: 0x8, addend: 0x0, symName: __ZNSt3__16vectorIfNS_9allocatorIfEEE6assignEmRKf, symObjAddr: 0x997C, symBinAddr: 0x10000A428, symSize: 0x224 }
  - { offset: 0x77985, size: 0x8, addend: 0x0, symName: __ZN13robertbridson9PCGSolverIfE5solveERKNS_12SparseMatrixIfEERKNSt3__16vectorIfNS6_9allocatorIfEEEERSA_RfRi.cold.14, symObjAddr: 0xB0D8, symBinAddr: 0x10000B274, symSize: 0x28 }
  - { offset: 0x77A71, size: 0x8, addend: 0x0, symName: __ZN13robertbridson9PCGSolverIfE5solveERKNS_12SparseMatrixIfEERKNSt3__16vectorIfNS6_9allocatorIfEEEERSA_RfRi.cold.12, symObjAddr: 0xB08C, symBinAddr: 0x10000B24C, symSize: 0x28 }
  - { offset: 0x77B61, size: 0x8, addend: 0x0, symName: __ZN13robertbridson9PCGSolverIfE5solveERKNS_12SparseMatrixIfEERKNSt3__16vectorIfNS6_9allocatorIfEEEERSA_RfRi.cold.11, symObjAddr: 0xB068, symBinAddr: 0x10000B228, symSize: 0x24 }
  - { offset: 0x77BA4, size: 0x8, addend: 0x0, symName: __ZN13robertbridson9PCGSolverIfE5solveERKNS_12SparseMatrixIfEERKNSt3__16vectorIfNS6_9allocatorIfEEEERSA_RfRi.cold.1, symObjAddr: 0xAEF8, symBinAddr: 0x10000B1DC, symSize: 0x24 }
  - { offset: 0x77C59, size: 0x8, addend: 0x0, symName: __ZN13robertbridson9PCGSolverIfE5solveERKNS_12SparseMatrixIfEERKNSt3__16vectorIfNS6_9allocatorIfEEEERSA_RfRi.cold.2, symObjAddr: 0xAF1C, symBinAddr: 0x10000B200, symSize: 0x28 }
  - { offset: 0x77D1E, size: 0x8, addend: 0x0, symName: __ZNK8FluidSim14solid_distanceERKN5Eigen6MatrixIfLi2ELi1ELi0ELi2ELi1EEERKNS_8BoundaryE, symObjAddr: 0x6070, symBinAddr: 0x100006D60, symSize: 0x54 }
  - { offset: 0x77E03, size: 0x8, addend: 0x0, symName: __ZNK8FluidSim14solid_distanceERKN5Eigen6MatrixIfLi2ELi1ELi0ELi2ELi1EEE, symObjAddr: 0x60C4, symBinAddr: 0x100006DB4, symSize: 0x58 }
  - { offset: 0x77E2C, size: 0x8, addend: 0x0, symName: __ZNK8FluidSim14solid_distanceERKN5Eigen6MatrixIfLi2ELi1ELi0ELi2ELi1EEE, symObjAddr: 0x60C4, symBinAddr: 0x100006DB4, symSize: 0x58 }
  - { offset: 0x7888E, size: 0x8, addend: 0x0, symName: __ZN8FluidSim21init_random_particlesEv, symObjAddr: 0x611C, symBinAddr: 0x100006E0C, symSize: 0x64C }
  - { offset: 0x79932, size: 0x8, addend: 0x0, symName: __ZN8FluidSim10initializeERKN5Eigen6MatrixIfLi2ELi1ELi0ELi2ELi1EEEfiifbb.cold.1, symObjAddr: 0x9BB4, symBinAddr: 0x10000B170, symSize: 0x24 }
  - { offset: 0x79F99, size: 0x8, addend: 0x0, symName: __ZN8FluidSim17render_boundariesERKNS_8BoundaryE, symObjAddr: 0x70F0, symBinAddr: 0x100007DE0, symSize: 0x80 }
  - { offset: 0x7A407, size: 0x8, addend: 0x0, symName: __ZN8FluidSim6renderEv, symObjAddr: 0x7170, symBinAddr: 0x100007E60, symSize: 0x284 }
  - { offset: 0x7A66E, size: 0x8, addend: 0x0, symName: __ZN8FluidSim8BoundaryC2ERKN5Eigen6MatrixIfLi2ELi1ELi0ELi2ELi1EEES5_NS_13BOUNDARY_TYPEEb, symObjAddr: 0x73F4, symBinAddr: 0x1000080E4, symSize: 0x2C }
  - { offset: 0x7A6B1, size: 0x8, addend: 0x0, symName: __ZN8FluidSim8BoundaryC2ERKN5Eigen6MatrixIfLi2ELi1ELi0ELi2ELi1EEES5_NS_13BOUNDARY_TYPEEb, symObjAddr: 0x73F4, symBinAddr: 0x1000080E4, symSize: 0x2C }
  - { offset: 0x7A6D4, size: 0x8, addend: 0x0, symName: __ZN8FluidSim8BoundaryC2ERKN5Eigen6MatrixIfLi2ELi1ELi0ELi2ELi1EEES5_NS_13BOUNDARY_TYPEEb, symObjAddr: 0x73F4, symBinAddr: 0x1000080E4, symSize: 0x2C }
  - { offset: 0x7A6F6, size: 0x8, addend: 0x0, symName: __ZN8FluidSim8BoundaryC2ERKN5Eigen6MatrixIfLi2ELi1ELi0ELi2ELi1EEES5_NS_13BOUNDARY_TYPEEb, symObjAddr: 0x73F4, symBinAddr: 0x1000080E4, symSize: 0x2C }
  - { offset: 0x7A719, size: 0x8, addend: 0x0, symName: __ZN8FluidSim8BoundaryC2ERKN5Eigen6MatrixIfLi2ELi1ELi0ELi2ELi1EEES5_NS_13BOUNDARY_TYPEEb, symObjAddr: 0x73F4, symBinAddr: 0x1000080E4, symSize: 0x2C }
  - { offset: 0x7A742, size: 0x8, addend: 0x0, symName: __ZN8FluidSim8BoundaryC2ERKN5Eigen6MatrixIfLi2ELi1ELi0ELi2ELi1EEES5_NS_13BOUNDARY_TYPEEb, symObjAddr: 0x73F4, symBinAddr: 0x1000080E4, symSize: 0x2C }
  - { offset: 0x7A76D, size: 0x8, addend: 0x0, symName: __ZN8FluidSim8BoundaryC2ERKN5Eigen6MatrixIfLi2ELi1ELi0ELi2ELi1EEES5_NS_13BOUNDARY_TYPEEb, symObjAddr: 0x73F4, symBinAddr: 0x1000080E4, symSize: 0x2C }
  - { offset: 0x7A790, size: 0x8, addend: 0x0, symName: __ZN8FluidSim8BoundaryC2ERKN5Eigen6MatrixIfLi2ELi1ELi0ELi2ELi1EEES5_NS_13BOUNDARY_TYPEEb, symObjAddr: 0x73F4, symBinAddr: 0x1000080E4, symSize: 0x2C }
  - { offset: 0x7A7CD, size: 0x8, addend: 0x0, symName: __ZN8FluidSim8BoundaryC2ERKN5Eigen6MatrixIfLi2ELi1ELi0ELi2ELi1EEES5_NS_13BOUNDARY_TYPEEb, symObjAddr: 0x73F4, symBinAddr: 0x1000080E4, symSize: 0x2C }
  - { offset: 0x7A7E2, size: 0x8, addend: 0x0, symName: __ZN8FluidSim8BoundaryC2ERKN5Eigen6MatrixIfLi2ELi1ELi0ELi2ELi1EEES5_NS_13BOUNDARY_TYPEEb, symObjAddr: 0x73F4, symBinAddr: 0x1000080E4, symSize: 0x2C }
  - { offset: 0x7A7F7, size: 0x8, addend: 0x0, symName: __ZN8FluidSim8BoundaryC2ERKN5Eigen6MatrixIfLi2ELi1ELi0ELi2ELi1EEES5_NS_13BOUNDARY_TYPEEb, symObjAddr: 0x73F4, symBinAddr: 0x1000080E4, symSize: 0x2C }
  - { offset: 0x7A826, size: 0x8, addend: 0x0, symName: __ZN8FluidSim8BoundaryC2ERKN5Eigen6MatrixIfLi2ELi1ELi0ELi2ELi1EEES5_NS_13BOUNDARY_TYPEEb, symObjAddr: 0x73F4, symBinAddr: 0x1000080E4, symSize: 0x2C }
  - { offset: 0x7A847, size: 0x8, addend: 0x0, symName: __ZN8FluidSim8BoundaryC2ERKN5Eigen6MatrixIfLi2ELi1ELi0ELi2ELi1EEES5_NS_13BOUNDARY_TYPEEb, symObjAddr: 0x73F4, symBinAddr: 0x1000080E4, symSize: 0x2C }
  - { offset: 0x7A868, size: 0x8, addend: 0x0, symName: __ZN8FluidSim8BoundaryC2ERKN5Eigen6MatrixIfLi2ELi1ELi0ELi2ELi1EEES5_NS_13BOUNDARY_TYPEEb, symObjAddr: 0x73F4, symBinAddr: 0x1000080E4, symSize: 0x2C }
  - { offset: 0x7A883, size: 0x8, addend: 0x0, symName: __ZN8FluidSim8BoundaryC2ERKN5Eigen6MatrixIfLi2ELi1ELi0ELi2ELi1EEES5_NS_13BOUNDARY_TYPEEb, symObjAddr: 0x73F4, symBinAddr: 0x1000080E4, symSize: 0x2C }
  - { offset: 0x7ABB8, size: 0x8, addend: 0x0, symName: __ZN8FluidSim8BoundaryC1ERKN5Eigen6MatrixIfLi2ELi1ELi0ELi2ELi1EEES5_NS_13BOUNDARY_TYPEEb, symObjAddr: 0x7420, symBinAddr: 0x100008110, symSize: 0x2C }
  - { offset: 0x7AC27, size: 0x8, addend: 0x0, symName: __ZN8FluidSim8BoundaryC1ERKN5Eigen6MatrixIfLi2ELi1ELi0ELi2ELi1EEES5_NS_13BOUNDARY_TYPEEb, symObjAddr: 0x7420, symBinAddr: 0x100008110, symSize: 0x2C }
  - { offset: 0x7AC64, size: 0x8, addend: 0x0, symName: __ZN8FluidSim8BoundaryC1ERKN5Eigen6MatrixIfLi2ELi1ELi0ELi2ELi1EEES5_NS_13BOUNDARY_TYPEEb, symObjAddr: 0x7420, symBinAddr: 0x100008110, symSize: 0x2C }
  - { offset: 0x7AC87, size: 0x8, addend: 0x0, symName: __ZN8FluidSim8BoundaryC1ERKN5Eigen6MatrixIfLi2ELi1ELi0ELi2ELi1EEES5_NS_13BOUNDARY_TYPEEb, symObjAddr: 0x7420, symBinAddr: 0x100008110, symSize: 0x2C }
  - { offset: 0x7ACA9, size: 0x8, addend: 0x0, symName: __ZN8FluidSim8BoundaryC1ERKN5Eigen6MatrixIfLi2ELi1ELi0ELi2ELi1EEES5_NS_13BOUNDARY_TYPEEb, symObjAddr: 0x7420, symBinAddr: 0x100008110, symSize: 0x2C }
  - { offset: 0x7ACCC, size: 0x8, addend: 0x0, symName: __ZN8FluidSim8BoundaryC1ERKN5Eigen6MatrixIfLi2ELi1ELi0ELi2ELi1EEES5_NS_13BOUNDARY_TYPEEb, symObjAddr: 0x7420, symBinAddr: 0x100008110, symSize: 0x2C }
  - { offset: 0x7ACF5, size: 0x8, addend: 0x0, symName: __ZN8FluidSim8BoundaryC1ERKN5Eigen6MatrixIfLi2ELi1ELi0ELi2ELi1EEES5_NS_13BOUNDARY_TYPEEb, symObjAddr: 0x7420, symBinAddr: 0x100008110, symSize: 0x2C }
  - { offset: 0x7AD20, size: 0x8, addend: 0x0, symName: __ZN8FluidSim8BoundaryC1ERKN5Eigen6MatrixIfLi2ELi1ELi0ELi2ELi1EEES5_NS_13BOUNDARY_TYPEEb, symObjAddr: 0x7420, symBinAddr: 0x100008110, symSize: 0x2C }
  - { offset: 0x7AD43, size: 0x8, addend: 0x0, symName: __ZN8FluidSim8BoundaryC1ERKN5Eigen6MatrixIfLi2ELi1ELi0ELi2ELi1EEES5_NS_13BOUNDARY_TYPEEb, symObjAddr: 0x7420, symBinAddr: 0x100008110, symSize: 0x2C }
  - { offset: 0x7AD80, size: 0x8, addend: 0x0, symName: __ZN8FluidSim8BoundaryC1ERKN5Eigen6MatrixIfLi2ELi1ELi0ELi2ELi1EEES5_NS_13BOUNDARY_TYPEEb, symObjAddr: 0x7420, symBinAddr: 0x100008110, symSize: 0x2C }
  - { offset: 0x7AD95, size: 0x8, addend: 0x0, symName: __ZN8FluidSim8BoundaryC1ERKN5Eigen6MatrixIfLi2ELi1ELi0ELi2ELi1EEES5_NS_13BOUNDARY_TYPEEb, symObjAddr: 0x7420, symBinAddr: 0x100008110, symSize: 0x2C }
  - { offset: 0x7ADAA, size: 0x8, addend: 0x0, symName: __ZN8FluidSim8BoundaryC1ERKN5Eigen6MatrixIfLi2ELi1ELi0ELi2ELi1EEES5_NS_13BOUNDARY_TYPEEb, symObjAddr: 0x7420, symBinAddr: 0x100008110, symSize: 0x2C }
  - { offset: 0x7ADD9, size: 0x8, addend: 0x0, symName: __ZN8FluidSim8BoundaryC1ERKN5Eigen6MatrixIfLi2ELi1ELi0ELi2ELi1EEES5_NS_13BOUNDARY_TYPEEb, symObjAddr: 0x7420, symBinAddr: 0x100008110, symSize: 0x2C }
  - { offset: 0x7ADFA, size: 0x8, addend: 0x0, symName: __ZN8FluidSim8BoundaryC1ERKN5Eigen6MatrixIfLi2ELi1ELi0ELi2ELi1EEES5_NS_13BOUNDARY_TYPEEb, symObjAddr: 0x7420, symBinAddr: 0x100008110, symSize: 0x2C }
  - { offset: 0x7AE1B, size: 0x8, addend: 0x0, symName: __ZN8FluidSim8BoundaryC1ERKN5Eigen6MatrixIfLi2ELi1ELi0ELi2ELi1EEES5_NS_13BOUNDARY_TYPEEb, symObjAddr: 0x7420, symBinAddr: 0x100008110, symSize: 0x2C }
  - { offset: 0x7AE36, size: 0x8, addend: 0x0, symName: __ZN8FluidSim8BoundaryC1ERKN5Eigen6MatrixIfLi2ELi1ELi0ELi2ELi1EEES5_NS_13BOUNDARY_TYPEEb, symObjAddr: 0x7420, symBinAddr: 0x100008110, symSize: 0x2C }
  - { offset: 0x7B11F, size: 0x8, addend: 0x0, symName: __ZN8ParticleC2ERKN5Eigen6MatrixIfLi2ELi1ELi0ELi2ELi1EEES4_RKfS6_, symObjAddr: 0x744C, symBinAddr: 0x10000813C, symSize: 0x7C }
  - { offset: 0x7B458, size: 0x8, addend: 0x0, symName: __ZN8ParticleC1ERKN5Eigen6MatrixIfLi2ELi1ELi0ELi2ELi1EEES4_RKfS6_, symObjAddr: 0x74C8, symBinAddr: 0x1000081B8, symSize: 0x7C }
  - { offset: 0x7B463, size: 0x8, addend: 0x0, symName: __ZN8ParticleC2ERKN5Eigen6MatrixIfLi2ELi1ELi0ELi2ELi1EEES4_RKfS6_.cold.1, symObjAddr: 0xB194, symBinAddr: 0x10000B29C, symSize: 0x24 }
  - { offset: 0x7B513, size: 0x8, addend: 0x0, symName: __ZN8ParticleC1ERKN5Eigen6MatrixIfLi2ELi1ELi0ELi2ELi1EEES4_RKfS6_, symObjAddr: 0x74C8, symBinAddr: 0x1000081B8, symSize: 0x7C }
  - { offset: 0x7B87D, size: 0x8, addend: 0x0, symName: __ZN8ParticleC2ERKS_, symObjAddr: 0x7544, symBinAddr: 0x100008234, symSize: 0x40 }
  - { offset: 0x7B8E7, size: 0x8, addend: 0x0, symName: __ZN8ParticleC2ERKS_, symObjAddr: 0x7544, symBinAddr: 0x100008234, symSize: 0x40 }
  - { offset: 0x7BC0B, size: 0x8, addend: 0x0, symName: __ZN8ParticleC1ERKS_, symObjAddr: 0x7584, symBinAddr: 0x100008274, symSize: 0x40 }
  - { offset: 0x7BC6A, size: 0x8, addend: 0x0, symName: __ZN8ParticleC1ERKS_, symObjAddr: 0x7584, symBinAddr: 0x100008274, symSize: 0x40 }
  - { offset: 0x7BFAA, size: 0x8, addend: 0x0, symName: ___clang_call_terminate, symObjAddr: 0x75C4, symBinAddr: 0x1000082B4, symSize: 0x10 }
  - { offset: 0x7C3DE, size: 0x8, addend: 0x0, symName: __ZNKSt3__112basic_stringIcNS_11char_traitsIcEENS_9allocatorIcEEE20__throw_length_errorB8ne180100Ev, symObjAddr: 0x79BC, symBinAddr: 0x1000086AC, symSize: 0x14 }
  - { offset: 0x7C408, size: 0x8, addend: 0x0, symName: __ZNSt3__120__throw_length_errorB8ne180100EPKc, symObjAddr: 0x79D0, symBinAddr: 0x1000086C0, symSize: 0x50 }
  - { offset: 0x7C413, size: 0x8, addend: 0x0, symName: __ZNSt12length_errorC1B8ne180100EPKc, symObjAddr: 0x7A20, symBinAddr: 0x100008710, symSize: 0x24 }
  - { offset: 0x7C4B5, size: 0x8, addend: 0x0, symName: __ZNSt3__16vectorIiNS_9allocatorIiEEED1B8ne180100Ev, symObjAddr: 0x7AC8, symBinAddr: 0x1000087B8, symSize: 0x30 }
  - { offset: 0x7C922, size: 0x8, addend: 0x0, symName: __ZNSt3__16vectorINS0_IjNS_9allocatorIjEEEENS1_IS3_EEE8__appendEm, symObjAddr: 0x7CC4, symBinAddr: 0x1000089A0, symSize: 0x1F4 }
  - { offset: 0x7D15C, size: 0x8, addend: 0x0, symName: __ZN13robertbridson12SparseMatrixIfE14add_to_elementEjjf, symObjAddr: 0x80D4, symBinAddr: 0x100008B94, symSize: 0x3A8 }
  - { offset: 0x7D609, size: 0x8, addend: 0x0, symName: __Z6insertIjEvRNSt3__16vectorIT_NS0_9allocatorIS2_EEEEjS2_, symObjAddr: 0x847C, symBinAddr: 0x100008F3C, symSize: 0x1B4 }
  - { offset: 0x7DB06, size: 0x8, addend: 0x0, symName: __Z6insertIfEvRNSt3__16vectorIT_NS0_9allocatorIS2_EEEEjS2_, symObjAddr: 0x8630, symBinAddr: 0x1000090F0, symSize: 0x1B4 }
  - { offset: 0x7DB1A, size: 0x8, addend: 0x0, symName: __Z6insertIfEvRNSt3__16vectorIT_NS0_9allocatorIS2_EEEEjS2_, symObjAddr: 0x8630, symBinAddr: 0x1000090F0, symSize: 0x1B4 }
  - { offset: 0x7E043, size: 0x8, addend: 0x0, symName: __ZN13robertbridson17FixedSparseMatrixIfE21construct_from_matrixERKNS_12SparseMatrixIfEE, symObjAddr: 0x87F8, symBinAddr: 0x1000092A4, symSize: 0x2C0 }
  - { offset: 0x7E11D, size: 0x8, addend: 0x0, symName: __ZNSt3__16vectorIjNS_9allocatorIjEEE8__appendEm, symObjAddr: 0x96E4, symBinAddr: 0x10000A190, symSize: 0x1A4 }
  - { offset: 0x7E585, size: 0x8, addend: 0x0, symName: __ZN13robertbridson11solve_lowerIfEEvRKNS_23SparseColumnLowerFactorIT_EERKNSt3__16vectorIS2_NS6_9allocatorIS2_EEEERSA_, symObjAddr: 0x9888, symBinAddr: 0x10000A334, symSize: 0xF4 }
  - { offset: 0x7E95C, size: 0x8, addend: 0x0, symName: __ZN13robertbridson4BLAS10add_scaledEfRKNSt3__16vectorIfNS1_9allocatorIfEEEERS5_.cold.3, symObjAddr: 0xB26C, symBinAddr: 0x10000B2C0, symSize: 0x28 }
  - { offset: 0x7EB6C, size: 0x8, addend: 0x0, symName: __ZN13robertbridson23SparseColumnLowerFactorIfE6resizeEj, symObjAddr: 0x9620, symBinAddr: 0x10000A0CC, symSize: 0xC4 }
  - { offset: 0x7EE57, size: 0x8, addend: 0x0, symName: __ZN13robertbridson11solve_lowerIfEEvRKNS_23SparseColumnLowerFactorIT_EERKNSt3__16vectorIS2_NS6_9allocatorIS2_EEEERSA_.cold.1, symObjAddr: 0xB294, symBinAddr: 0x10000B2E8, symSize: 0x28 }
  - { offset: 0x7EF29, size: 0x8, addend: 0x0, symName: _OUTLINED_FUNCTION_0, symObjAddr: 0xB2BC, symBinAddr: 0x10000A64C, symSize: 0x8 }
  - { offset: 0x7EF41, size: 0x8, addend: 0x0, symName: _OUTLINED_FUNCTION_1, symObjAddr: 0xB2C4, symBinAddr: 0x10000A654, symSize: 0x8 }
  - { offset: 0x7EF59, size: 0x8, addend: 0x0, symName: _OUTLINED_FUNCTION_2, symObjAddr: 0xB2CC, symBinAddr: 0x10000A65C, symSize: 0x8 }
  - { offset: 0x7EF71, size: 0x8, addend: 0x0, symName: _OUTLINED_FUNCTION_3, symObjAddr: 0xB2D4, symBinAddr: 0x10000A664, symSize: 0x8 }
  - { offset: 0x7EF89, size: 0x8, addend: 0x0, symName: _OUTLINED_FUNCTION_4, symObjAddr: 0xB2DC, symBinAddr: 0x10000A66C, symSize: 0x8 }
  - { offset: 0x7EFA1, size: 0x8, addend: 0x0, symName: _OUTLINED_FUNCTION_5, symObjAddr: 0xB2E4, symBinAddr: 0x10000A674, symSize: 0x8 }
  - { offset: 0x8134C, size: 0x8, addend: 0x0, symName: __MergedGlobals, symObjAddr: 0x46760, symBinAddr: 0x1000101E8, symSize: 0x0 }
  - { offset: 0x81423, size: 0x8, addend: 0x0, symName: __MergedGlobals, symObjAddr: 0x46760, symBinAddr: 0x1000101E8, symSize: 0x0 }
  - { offset: 0x8143F, size: 0x8, addend: 0x0, symName: __MergedGlobals, symObjAddr: 0x46760, symBinAddr: 0x1000101E8, symSize: 0x0 }
  - { offset: 0x89838, size: 0x8, addend: 0x0, symName: _sim, symObjAddr: 0x46398, symBinAddr: 0x100010200, symSize: 0x0 }
  - { offset: 0x8A794, size: 0x8, addend: 0x0, symName: __MergedGlobals, symObjAddr: 0x46760, symBinAddr: 0x1000101E8, symSize: 0x0 }
  - { offset: 0x8A7B0, size: 0x8, addend: 0x0, symName: __MergedGlobals, symObjAddr: 0x46760, symBinAddr: 0x1000101E8, symSize: 0x0 }
  - { offset: 0x8A84B, size: 0x8, addend: 0x0, symName: __Z12setup_openglv, symObjAddr: 0x0, symBinAddr: 0x10000A67C, symSize: 0x40 }
  - { offset: 0x8A917, size: 0x8, addend: 0x0, symName: __Z12render_scenev, symObjAddr: 0x40, symBinAddr: 0x10000A6BC, symSize: 0x54 }
  - { offset: 0x8AA0B, size: 0x8, addend: 0x0, symName: __Z13handle_resizeii, symObjAddr: 0x94, symBinAddr: 0x10000A710, symSize: 0x14 }
  - { offset: 0x8AAA0, size: 0x8, addend: 0x0, symName: __Z12key_callbackhii, symObjAddr: 0xA8, symBinAddr: 0x10000A724, symSize: 0x1C }
  - { offset: 0x8AAE3, size: 0x8, addend: 0x0, symName: __Z4ticki, symObjAddr: 0xC4, symBinAddr: 0x10000A740, symSize: 0xB4 }
  - { offset: 0x8AB02, size: 0x8, addend: 0x0, symName: __Z4ticki, symObjAddr: 0xC4, symBinAddr: 0x10000A740, symSize: 0xB4 }
  - { offset: 0x8AE02, size: 0x8, addend: 0x0, symName: _main, symObjAddr: 0x178, symBinAddr: 0x10000A7F4, symSize: 0x160 }
  - { offset: 0x8B636, size: 0x8, addend: 0x0, symName: __ZN13robertbridson9PCGSolverIfEC1Ev, symObjAddr: 0x2D8, symBinAddr: 0x10000A954, symSize: 0x104 }
  - { offset: 0x8BDC0, size: 0x8, addend: 0x0, symName: __ZN13robertbridson9PCGSolverIfEC1Ev.cold.1, symObjAddr: 0x3DC, symBinAddr: 0x10000B310, symSize: 0x48 }
  - { offset: 0x8DEAE, size: 0x8, addend: 0x0, symName: __ZN6sorterC2Eii, symObjAddr: 0x0, symBinAddr: 0x10000AB58, symSize: 0x54 }
  - { offset: 0x92C82, size: 0x8, addend: 0x0, symName: __ZN6sorterC2Eii, symObjAddr: 0x0, symBinAddr: 0x10000AB58, symSize: 0x54 }
  - { offset: 0x93146, size: 0x8, addend: 0x0, symName: __ZNSt3__16vectorINS0_IPK8ParticleNS_9allocatorIS3_EEEENS4_IS6_EEED1B8ne180100Ev, symObjAddr: 0x54, symBinAddr: 0x10000ABAC, symSize: 0x74 }
  - { offset: 0x93648, size: 0x8, addend: 0x0, symName: __ZN6sorterC1Eii, symObjAddr: 0xC8, symBinAddr: 0x10000AC20, symSize: 0x5C }
  - { offset: 0x937A9, size: 0x8, addend: 0x0, symName: __ZN6sorterC1Eii.cold.1, symObjAddr: 0x8D0, symBinAddr: 0x10000B370, symSize: 0x60 }
  - { offset: 0x93A4E, size: 0x8, addend: 0x0, symName: __ZN6sorterD2Ev, symObjAddr: 0x124, symBinAddr: 0x10000AC7C, symSize: 0x74 }
  - { offset: 0x93D21, size: 0x8, addend: 0x0, symName: __ZN6sorterD1Ev, symObjAddr: 0x198, symBinAddr: 0x10000ACF0, symSize: 0x74 }
  - { offset: 0x94411, size: 0x8, addend: 0x0, symName: __ZN6sorter4sortERKNSt3__16vectorI8ParticleNS0_9allocatorIS2_EEEERKN5Eigen6MatrixIfLi2ELi1ELi0ELi2ELi1EEEf, symObjAddr: 0x20C, symBinAddr: 0x10000AD64, symSize: 0x40C }
  - { offset: 0x94A63, size: 0x8, addend: 0x0, symName: __ZN6sorterC1Eii.cold.1, symObjAddr: 0x8D0, symBinAddr: 0x10000B370, symSize: 0x60 }
...
